
ha.hello：     文件格式 elf64-x86-64


Disassembly of section .text:

0000000008000000 <_start>:
 8000000:	48 31 ed             	xor    rbp,rbp
 8000003:	48 89 e7             	mov    rdi,rsp
 8000006:	e8 a5 36 01 00       	call   80136b0 <rt.start_linux>

000000000800000b <rt.cpuid_getvendorstr>:
 800000b:	52                   	push   rdx
 800000c:	51                   	push   rcx
 800000d:	53                   	push   rbx
 800000e:	0f a2                	cpuid  
 8000010:	89 1f                	mov    DWORD PTR [rdi],ebx
 8000012:	89 57 04             	mov    DWORD PTR [rdi+0x4],edx
 8000015:	89 4f 08             	mov    DWORD PTR [rdi+0x8],ecx
 8000018:	5b                   	pop    rbx
 8000019:	59                   	pop    rcx
 800001a:	5a                   	pop    rdx
 800001b:	c3                   	ret    

000000000800001c <rt.cpuid_getfeatureflags>:
 800001c:	52                   	push   rdx
 800001d:	51                   	push   rcx
 800001e:	53                   	push   rbx
 800001f:	b8 01 00 00 00       	mov    eax,0x1
 8000024:	0f a2                	cpuid  
 8000026:	48 89 7c 24 f8       	mov    QWORD PTR [rsp-0x8],rdi
 800002b:	48 8b 44 24 f8       	mov    rax,QWORD PTR [rsp-0x8]
 8000030:	89 10                	mov    DWORD PTR [rax],edx
 8000032:	48 8b 44 24 f8       	mov    rax,QWORD PTR [rsp-0x8]
 8000037:	48 83 c0 04          	add    rax,0x4
 800003b:	89 08                	mov    DWORD PTR [rax],ecx
 800003d:	5b                   	pop    rbx
 800003e:	59                   	pop    rcx
 800003f:	5a                   	pop    rdx
 8000040:	c3                   	ret    

0000000008000041 <rt.feclearexcept>:
 8000041:	89 f9                	mov    ecx,edi
 8000043:	83 e1 3f             	and    ecx,0x3f
 8000046:	df e0                	fnstsw ax
 8000048:	85 c1                	test   ecx,eax
 800004a:	74 02                	je     800004e <rt.feclearexcept+0xd>
 800004c:	db e2                	fnclex 
 800004e:	0f ae 5c 24 f8       	stmxcsr DWORD PTR [rsp-0x8]
 8000053:	83 e0 3f             	and    eax,0x3f
 8000056:	09 44 24 f8          	or     DWORD PTR [rsp-0x8],eax
 800005a:	85 4c 24 f8          	test   DWORD PTR [rsp-0x8],ecx
 800005e:	74 0b                	je     800006b <rt.feclearexcept+0x2a>
 8000060:	f7 d1                	not    ecx
 8000062:	21 4c 24 f8          	and    DWORD PTR [rsp-0x8],ecx
 8000066:	0f ae 54 24 f8       	ldmxcsr DWORD PTR [rsp-0x8]
 800006b:	31 c0                	xor    eax,eax
 800006d:	c3                   	ret    

000000000800006e <rt.feraiseexcept>:
 800006e:	83 e7 3f             	and    edi,0x3f
 8000071:	0f ae 5c 24 f8       	stmxcsr DWORD PTR [rsp-0x8]
 8000076:	09 7c 24 f8          	or     DWORD PTR [rsp-0x8],edi
 800007a:	0f ae 54 24 f8       	ldmxcsr DWORD PTR [rsp-0x8]
 800007f:	31 c0                	xor    eax,eax
 8000081:	c3                   	ret    

0000000008000082 <rt.fesetround>:
 8000082:	50                   	push   rax
 8000083:	31 c0                	xor    eax,eax
 8000085:	89 f9                	mov    ecx,edi
 8000087:	d9 3c 24             	fnstcw WORD PTR [rsp]
 800008a:	80 64 24 01 f3       	and    BYTE PTR [rsp+0x1],0xf3
 800008f:	08 6c 24 01          	or     BYTE PTR [rsp+0x1],ch
 8000093:	d9 2c 24             	fldcw  WORD PTR [rsp]
 8000096:	0f ae 1c 24          	stmxcsr DWORD PTR [rsp]
 800009a:	c0 e5 03             	shl    ch,0x3
 800009d:	80 64 24 01 9f       	and    BYTE PTR [rsp+0x1],0x9f
 80000a2:	08 6c 24 01          	or     BYTE PTR [rsp+0x1],ch
 80000a6:	0f ae 14 24          	ldmxcsr DWORD PTR [rsp]
 80000aa:	59                   	pop    rcx
 80000ab:	c3                   	ret    

00000000080000ac <rt.fegetround>:
 80000ac:	50                   	push   rax
 80000ad:	0f ae 1c 24          	stmxcsr DWORD PTR [rsp]
 80000b1:	58                   	pop    rax
 80000b2:	c1 e8 03             	shr    eax,0x3
 80000b5:	25 00 0c 00 00       	and    eax,0xc00
 80000ba:	c3                   	ret    

00000000080000bb <rt.fetestexcept>:
 80000bb:	83 e7 3f             	and    edi,0x3f
 80000be:	50                   	push   rax
 80000bf:	0f ae 1c 24          	stmxcsr DWORD PTR [rsp]
 80000c3:	5e                   	pop    rsi
 80000c4:	df e0                	fnstsw ax
 80000c6:	09 f0                	or     eax,esi
 80000c8:	21 f8                	and    eax,edi
 80000ca:	c3                   	ret    

00000000080000cb <rt.getfp>:
 80000cb:	48 8b 45 00          	mov    rax,QWORD PTR [rbp+0x0]
 80000cf:	c3                   	ret    

00000000080000d0 <rt.restore>:
 80000d0:	b8 0f 00 00 00       	mov    eax,0xf
 80000d5:	0f 05                	syscall 

00000000080000d7 <main>:
 80000d7:	55                   	push   rbp
 80000d8:	48 89 e5             	mov    rbp,rsp
 80000db:	48 81 ec c0 00 00 00 	sub    rsp,0xc0
 80000e2:	c7 45 88 71 81 80 a9 	mov    DWORD PTR [rbp-0x78],0xa9808171
 80000e9:	48 8d 05 e0 01 00 78 	lea    rax,[rip+0x780001e0]        # 800002d0 <strdata.21>
 80000f0:	48 89 45 90          	mov    QWORD PTR [rbp-0x70],rax
 80000f4:	48 c7 45 98 0c 00 00 	mov    QWORD PTR [rbp-0x68],0xc
 80000fb:	00 
 80000fc:	48 c7 45 a0 0c 00 00 	mov    QWORD PTR [rbp-0x60],0xc
 8000103:	00 
 8000104:	48 8d 45 88          	lea    rax,[rbp-0x78]
 8000108:	48 89 85 70 ff ff ff 	mov    QWORD PTR [rbp-0x90],rax
 800010f:	48 c7 85 78 ff ff ff 	mov    QWORD PTR [rbp-0x88],0x1
 8000116:	01 00 00 00 
 800011a:	48 c7 45 80 01 00 00 	mov    QWORD PTR [rbp-0x80],0x1
 8000121:	00 
 8000122:	48 83 ec 20          	sub    rsp,0x20
 8000126:	48 89 e1             	mov    rcx,rsp
 8000129:	48 8b 45 80          	mov    rax,QWORD PTR [rbp-0x80]
 800012d:	48 89 41 10          	mov    QWORD PTR [rcx+0x10],rax
 8000131:	48 8b 85 78 ff ff ff 	mov    rax,QWORD PTR [rbp-0x88]
 8000138:	48 89 41 08          	mov    QWORD PTR [rcx+0x8],rax
 800013c:	48 8b 85 70 ff ff ff 	mov    rax,QWORD PTR [rbp-0x90]
 8000143:	48 89 01             	mov    QWORD PTR [rcx],rax
 8000146:	48 8d bd 40 ff ff ff 	lea    rdi,[rbp-0xc0]
 800014d:	e8 ca ef 00 00       	call   800f11c <fmt.println>
 8000152:	48 83 ec e0          	sub    rsp,0xffffffffffffffe0
 8000156:	8b 08                	mov    ecx,DWORD PTR [rax]
 8000158:	81 f9 7e e5 8c 67    	cmp    ecx,0x678ce57e
 800015e:	0f 84 b9 00 00 00    	je     800021d <main+0x146>
 8000164:	81 f9 0f ac e8 49    	cmp    ecx,0x49e8ac0f
 800016a:	75 6a                	jne    80001d6 <main+0xff>
 800016c:	48 8b 48 08          	mov    rcx,QWORD PTR [rax+0x8]
 8000170:	48 89 4d a8          	mov    QWORD PTR [rbp-0x58],rcx
 8000174:	48 8b 48 10          	mov    rcx,QWORD PTR [rax+0x10]
 8000178:	48 89 4d b0          	mov    QWORD PTR [rbp-0x50],rcx
 800017c:	48 8b 48 18          	mov    rcx,QWORD PTR [rax+0x18]
 8000180:	48 89 4d b8          	mov    QWORD PTR [rbp-0x48],rcx
 8000184:	48 8b 48 20          	mov    rcx,QWORD PTR [rax+0x20]
 8000188:	48 89 4d c0          	mov    QWORD PTR [rbp-0x40],rcx
 800018c:	48 8b 40 28          	mov    rax,QWORD PTR [rax+0x28]
 8000190:	48 89 45 c8          	mov    QWORD PTR [rbp-0x38],rax
 8000194:	48 8d 05 45 01 00 78 	lea    rax,[rip+0x78000145]        # 800002e0 <strdata.49>
 800019b:	48 89 45 d0          	mov    QWORD PTR [rbp-0x30],rax
 800019f:	48 c7 45 d8 62 00 00 	mov    QWORD PTR [rbp-0x28],0x62
 80001a6:	00 
 80001a7:	48 c7 45 e0 62 00 00 	mov    QWORD PTR [rbp-0x20],0x62
 80001ae:	00 
 80001af:	48 83 ec 20          	sub    rsp,0x20
 80001b3:	48 89 e1             	mov    rcx,rsp
 80001b6:	48 8b 45 e0          	mov    rax,QWORD PTR [rbp-0x20]
 80001ba:	48 89 41 10          	mov    QWORD PTR [rcx+0x10],rax
 80001be:	48 8b 45 d8          	mov    rax,QWORD PTR [rbp-0x28]
 80001c2:	48 89 41 08          	mov    QWORD PTR [rcx+0x8],rax
 80001c6:	48 8b 45 d0          	mov    rax,QWORD PTR [rbp-0x30]
 80001ca:	48 89 01             	mov    QWORD PTR [rcx],rax
 80001cd:	e8 c0 56 01 00       	call   8015892 <rt.abort>
 80001d2:	48 83 ec e0          	sub    rsp,0xffffffffffffffe0
 80001d6:	48 8d 05 6b 01 00 78 	lea    rax,[rip+0x7800016b]        # 80000348 <strdata.53>
 80001dd:	48 89 45 e8          	mov    QWORD PTR [rbp-0x18],rax
 80001e1:	48 c7 45 f0 3f 00 00 	mov    QWORD PTR [rbp-0x10],0x3f
 80001e8:	00 
 80001e9:	48 c7 45 f8 3f 00 00 	mov    QWORD PTR [rbp-0x8],0x3f
 80001f0:	00 
 80001f1:	48 83 ec 20          	sub    rsp,0x20
 80001f5:	48 89 e1             	mov    rcx,rsp
 80001f8:	48 8b 45 f8          	mov    rax,QWORD PTR [rbp-0x8]
 80001fc:	48 89 41 10          	mov    QWORD PTR [rcx+0x10],rax
 8000200:	48 8b 45 f0          	mov    rax,QWORD PTR [rbp-0x10]
 8000204:	48 89 41 08          	mov    QWORD PTR [rcx+0x8],rax
 8000208:	48 8b 45 e8          	mov    rax,QWORD PTR [rbp-0x18]
 800020c:	48 89 01             	mov    QWORD PTR [rcx],rax
 800020f:	bf 04 00 00 00       	mov    edi,0x4
 8000214:	e8 a6 56 01 00       	call   80158bf <rt.abort_fixed>
 8000219:	48 83 ec e0          	sub    rsp,0xffffffffffffffe0
 800021d:	c9                   	leave  
 800021e:	c3                   	ret    

000000000800021f <bytes.contains>:
 800021f:	55                   	push   rbp
 8000220:	48 89 e5             	mov    rbp,rsp
 8000223:	48 83 ec 50          	sub    rsp,0x50
 8000227:	8b 45 28             	mov    eax,DWORD PTR [rbp+0x28]
 800022a:	3d 5d 3e 9e 71       	cmp    eax,0x719e3e5d
 800022f:	0f 84 d6 00 00 00    	je     800030b <bytes.contains+0xec>
 8000235:	3d 4e 4e f7 44       	cmp    eax,0x44f74e4e
 800023a:	74 51                	je     800028d <bytes.contains+0x6e>
 800023c:	48 8d 05 45 01 00 78 	lea    rax,[rip+0x78000145]        # 80000388 <strdata.54>
 8000243:	48 89 45 e8          	mov    QWORD PTR [rbp-0x18],rax
 8000247:	48 c7 45 f0 2a 00 00 	mov    QWORD PTR [rbp-0x10],0x2a
 800024e:	00 
 800024f:	48 c7 45 f8 2a 00 00 	mov    QWORD PTR [rbp-0x8],0x2a
 8000256:	00 
 8000257:	48 83 ec 20          	sub    rsp,0x20
 800025b:	48 89 e1             	mov    rcx,rsp
 800025e:	48 8b 45 f8          	mov    rax,QWORD PTR [rbp-0x8]
 8000262:	48 89 41 10          	mov    QWORD PTR [rcx+0x10],rax
 8000266:	48 8b 45 f0          	mov    rax,QWORD PTR [rbp-0x10]
 800026a:	48 89 41 08          	mov    QWORD PTR [rcx+0x8],rax
 800026e:	48 8b 45 e8          	mov    rax,QWORD PTR [rbp-0x18]
 8000272:	48 89 01             	mov    QWORD PTR [rcx],rax
 8000275:	bf 04 00 00 00       	mov    edi,0x4
 800027a:	e8 40 56 01 00       	call   80158bf <rt.abort_fixed>
 800027f:	48 83 ec e0          	sub    rsp,0xffffffffffffffe0
 8000283:	b8 00 00 00 00       	mov    eax,0x0
 8000288:	e9 ce 00 00 00       	jmp    800035b <bytes.contains+0x13c>
 800028d:	48 8b 45 30          	mov    rax,QWORD PTR [rbp+0x30]
 8000291:	48 89 45 d0          	mov    QWORD PTR [rbp-0x30],rax
 8000295:	48 8b 45 38          	mov    rax,QWORD PTR [rbp+0x38]
 8000299:	48 89 45 d8          	mov    QWORD PTR [rbp-0x28],rax
 800029d:	48 8b 45 40          	mov    rax,QWORD PTR [rbp+0x40]
 80002a1:	48 89 45 e0          	mov    QWORD PTR [rbp-0x20],rax
 80002a5:	48 83 ec 30          	sub    rsp,0x30
 80002a9:	48 89 e1             	mov    rcx,rsp
 80002ac:	48 8b 45 e0          	mov    rax,QWORD PTR [rbp-0x20]
 80002b0:	48 89 41 28          	mov    QWORD PTR [rcx+0x28],rax
 80002b4:	48 8b 45 d8          	mov    rax,QWORD PTR [rbp-0x28]
 80002b8:	48 89 41 20          	mov    QWORD PTR [rcx+0x20],rax
 80002bc:	48 8b 45 d0          	mov    rax,QWORD PTR [rbp-0x30]
 80002c0:	48 89 41 18          	mov    QWORD PTR [rcx+0x18],rax
 80002c4:	48 8b 45 20          	mov    rax,QWORD PTR [rbp+0x20]
 80002c8:	48 89 41 10          	mov    QWORD PTR [rcx+0x10],rax
 80002cc:	48 8b 45 18          	mov    rax,QWORD PTR [rbp+0x18]
 80002d0:	48 89 41 08          	mov    QWORD PTR [rcx+0x8],rax
 80002d4:	48 8b 45 10          	mov    rax,QWORD PTR [rbp+0x10]
 80002d8:	48 89 01             	mov    QWORD PTR [rcx],rax
 80002db:	e8 6a 03 00 00       	call   800064a <bytes.index_slice>
 80002e0:	48 89 c1             	mov    rcx,rax
 80002e3:	48 89 d0             	mov    rax,rdx
 80002e6:	48 89 4d c0          	mov    QWORD PTR [rbp-0x40],rcx
 80002ea:	48 89 45 c8          	mov    QWORD PTR [rbp-0x38],rax
 80002ee:	48 83 ec d0          	sub    rsp,0xffffffffffffffd0
 80002f2:	8b 45 c0             	mov    eax,DWORD PTR [rbp-0x40]
 80002f5:	3d c6 b8 a0 97       	cmp    eax,0x97a0b8c6
 80002fa:	0f 94 c0             	sete   al
 80002fd:	0f b6 c0             	movzx  eax,al
 8000300:	83 f8 00             	cmp    eax,0x0
 8000303:	0f 94 c0             	sete   al
 8000306:	0f b6 c0             	movzx  eax,al
 8000309:	eb 50                	jmp    800035b <bytes.contains+0x13c>
 800030b:	0f b6 7d 30          	movzx  edi,BYTE PTR [rbp+0x30]
 800030f:	48 83 ec 20          	sub    rsp,0x20
 8000313:	48 89 e1             	mov    rcx,rsp
 8000316:	48 8b 45 20          	mov    rax,QWORD PTR [rbp+0x20]
 800031a:	48 89 41 10          	mov    QWORD PTR [rcx+0x10],rax
 800031e:	48 8b 45 18          	mov    rax,QWORD PTR [rbp+0x18]
 8000322:	48 89 41 08          	mov    QWORD PTR [rcx+0x8],rax
 8000326:	48 8b 45 10          	mov    rax,QWORD PTR [rbp+0x10]
 800032a:	48 89 01             	mov    QWORD PTR [rcx],rax
 800032d:	e8 5f 02 00 00       	call   8000591 <bytes.index_byte>
 8000332:	48 89 c1             	mov    rcx,rax
 8000335:	48 89 d0             	mov    rax,rdx
 8000338:	48 89 4d b0          	mov    QWORD PTR [rbp-0x50],rcx
 800033c:	48 89 45 b8          	mov    QWORD PTR [rbp-0x48],rax
 8000340:	48 83 ec e0          	sub    rsp,0xffffffffffffffe0
 8000344:	8b 45 b0             	mov    eax,DWORD PTR [rbp-0x50]
 8000347:	3d c6 b8 a0 97       	cmp    eax,0x97a0b8c6
 800034c:	0f 94 c0             	sete   al
 800034f:	0f b6 c0             	movzx  eax,al
 8000352:	83 f8 00             	cmp    eax,0x0
 8000355:	0f 94 c0             	sete   al
 8000358:	0f b6 c0             	movzx  eax,al
 800035b:	c9                   	leave  
 800035c:	c3                   	ret    

000000000800035d <bytes.equal>:
 800035d:	55                   	push   rbp
 800035e:	48 89 e5             	mov    rbp,rsp
 8000361:	48 83 ec 38          	sub    rsp,0x38
 8000365:	53                   	push   rbx
 8000366:	41 54                	push   r12
 8000368:	41 55                	push   r13
 800036a:	48 8b 4d 18          	mov    rcx,QWORD PTR [rbp+0x18]
 800036e:	48 8b 45 30          	mov    rax,QWORD PTR [rbp+0x30]
 8000372:	48 39 c1             	cmp    rcx,rax
 8000375:	0f 85 e8 00 00 00    	jne    8000463 <bytes.equal+0x106>
 800037b:	bb 00 00 00 00       	mov    ebx,0x0
 8000380:	48 8b 45 18          	mov    rax,QWORD PTR [rbp+0x18]
 8000384:	48 39 c3             	cmp    rbx,rax
 8000387:	0f 83 cf 00 00 00    	jae    800045c <bytes.equal+0xff>
 800038d:	48 8b 4d 10          	mov    rcx,QWORD PTR [rbp+0x10]
 8000391:	49 89 cc             	mov    r12,rcx
 8000394:	49 01 dc             	add    r12,rbx
 8000397:	48 39 c3             	cmp    rbx,rax
 800039a:	72 47                	jb     80003e3 <bytes.equal+0x86>
 800039c:	48 8d 05 15 00 00 78 	lea    rax,[rip+0x78000015]        # 800003b8 <strdata.151>
 80003a3:	48 89 45 d0          	mov    QWORD PTR [rbp-0x30],rax
 80003a7:	48 c7 45 d8 28 00 00 	mov    QWORD PTR [rbp-0x28],0x28
 80003ae:	00 
 80003af:	48 c7 45 e0 28 00 00 	mov    QWORD PTR [rbp-0x20],0x28
 80003b6:	00 
 80003b7:	48 83 ec 20          	sub    rsp,0x20
 80003bb:	48 89 e1             	mov    rcx,rsp
 80003be:	48 8b 45 e0          	mov    rax,QWORD PTR [rbp-0x20]
 80003c2:	48 89 41 10          	mov    QWORD PTR [rcx+0x10],rax
 80003c6:	48 8b 45 d8          	mov    rax,QWORD PTR [rbp-0x28]
 80003ca:	48 89 41 08          	mov    QWORD PTR [rcx+0x8],rax
 80003ce:	48 8b 45 d0          	mov    rax,QWORD PTR [rbp-0x30]
 80003d2:	48 89 01             	mov    QWORD PTR [rcx],rax
 80003d5:	bf 00 00 00 00       	mov    edi,0x0
 80003da:	e8 e0 54 01 00       	call   80158bf <rt.abort_fixed>
 80003df:	48 83 ec e0          	sub    rsp,0xffffffffffffffe0
 80003e3:	45 0f b6 24 24       	movzx  r12d,BYTE PTR [r12]
 80003e8:	48 8b 4d 28          	mov    rcx,QWORD PTR [rbp+0x28]
 80003ec:	48 8b 45 30          	mov    rax,QWORD PTR [rbp+0x30]
 80003f0:	49 89 cd             	mov    r13,rcx
 80003f3:	49 01 dd             	add    r13,rbx
 80003f6:	48 39 c3             	cmp    rbx,rax
 80003f9:	72 47                	jb     8000442 <bytes.equal+0xe5>
 80003fb:	48 8d 05 de ff ff 77 	lea    rax,[rip+0x77ffffde]        # 800003e0 <strdata.163>
 8000402:	48 89 45 e8          	mov    QWORD PTR [rbp-0x18],rax
 8000406:	48 c7 45 f0 28 00 00 	mov    QWORD PTR [rbp-0x10],0x28
 800040d:	00 
 800040e:	48 c7 45 f8 28 00 00 	mov    QWORD PTR [rbp-0x8],0x28
 8000415:	00 
 8000416:	48 83 ec 20          	sub    rsp,0x20
 800041a:	48 89 e1             	mov    rcx,rsp
 800041d:	48 8b 45 f8          	mov    rax,QWORD PTR [rbp-0x8]
 8000421:	48 89 41 10          	mov    QWORD PTR [rcx+0x10],rax
 8000425:	48 8b 45 f0          	mov    rax,QWORD PTR [rbp-0x10]
 8000429:	48 89 41 08          	mov    QWORD PTR [rcx+0x8],rax
 800042d:	48 8b 45 e8          	mov    rax,QWORD PTR [rbp-0x18]
 8000431:	48 89 01             	mov    QWORD PTR [rcx],rax
 8000434:	bf 00 00 00 00       	mov    edi,0x0
 8000439:	e8 81 54 01 00       	call   80158bf <rt.abort_fixed>
 800043e:	48 83 ec e0          	sub    rsp,0xffffffffffffffe0
 8000442:	41 0f b6 45 00       	movzx  eax,BYTE PTR [r13+0x0]
 8000447:	41 39 c4             	cmp    r12d,eax
 800044a:	75 09                	jne    8000455 <bytes.equal+0xf8>
 800044c:	48 83 c3 01          	add    rbx,0x1
 8000450:	e9 2b ff ff ff       	jmp    8000380 <bytes.equal+0x23>
 8000455:	b8 00 00 00 00       	mov    eax,0x0
 800045a:	eb 0c                	jmp    8000468 <bytes.equal+0x10b>
 800045c:	b8 01 00 00 00       	mov    eax,0x1
 8000461:	eb 05                	jmp    8000468 <bytes.equal+0x10b>
 8000463:	b8 00 00 00 00       	mov    eax,0x0
 8000468:	41 5d                	pop    r13
 800046a:	41 5c                	pop    r12
 800046c:	5b                   	pop    rbx
 800046d:	c9                   	leave  
 800046e:	c3                   	ret    

000000000800046f <bytes.index>:
 800046f:	55                   	push   rbp
 8000470:	48 89 e5             	mov    rbp,rsp
 8000473:	48 83 ec 50          	sub    rsp,0x50
 8000477:	8b 45 28             	mov    eax,DWORD PTR [rbp+0x28]
 800047a:	3d 5d 3e 9e 71       	cmp    eax,0x719e3e5d
 800047f:	0f 84 c3 00 00 00    	je     8000548 <bytes.index+0xd9>
 8000485:	3d 4e 4e f7 44       	cmp    eax,0x44f74e4e
 800048a:	74 51                	je     80004dd <bytes.index+0x6e>
 800048c:	48 8d 05 75 ff ff 77 	lea    rax,[rip+0x77ffff75]        # 80000408 <strdata.207>
 8000493:	48 89 45 e8          	mov    QWORD PTR [rbp-0x18],rax
 8000497:	48 c7 45 f0 27 00 00 	mov    QWORD PTR [rbp-0x10],0x27
 800049e:	00 
 800049f:	48 c7 45 f8 27 00 00 	mov    QWORD PTR [rbp-0x8],0x27
 80004a6:	00 
 80004a7:	48 83 ec 20          	sub    rsp,0x20
 80004ab:	48 89 e1             	mov    rcx,rsp
 80004ae:	48 8b 45 f8          	mov    rax,QWORD PTR [rbp-0x8]
 80004b2:	48 89 41 10          	mov    QWORD PTR [rcx+0x10],rax
 80004b6:	48 8b 45 f0          	mov    rax,QWORD PTR [rbp-0x10]
 80004ba:	48 89 41 08          	mov    QWORD PTR [rcx+0x8],rax
 80004be:	48 8b 45 e8          	mov    rax,QWORD PTR [rbp-0x18]
 80004c2:	48 89 01             	mov    QWORD PTR [rcx],rax
 80004c5:	bf 04 00 00 00       	mov    edi,0x4
 80004ca:	e8 f0 53 01 00       	call   80158bf <rt.abort_fixed>
 80004cf:	48 83 ec e0          	sub    rsp,0xffffffffffffffe0
 80004d3:	b8 00 00 00 00       	mov    eax,0x0
 80004d8:	e9 a8 00 00 00       	jmp    8000585 <bytes.index+0x116>
 80004dd:	48 8b 45 30          	mov    rax,QWORD PTR [rbp+0x30]
 80004e1:	48 89 45 d0          	mov    QWORD PTR [rbp-0x30],rax
 80004e5:	48 8b 45 38          	mov    rax,QWORD PTR [rbp+0x38]
 80004e9:	48 89 45 d8          	mov    QWORD PTR [rbp-0x28],rax
 80004ed:	48 8b 45 40          	mov    rax,QWORD PTR [rbp+0x40]
 80004f1:	48 89 45 e0          	mov    QWORD PTR [rbp-0x20],rax
 80004f5:	48 83 ec 30          	sub    rsp,0x30
 80004f9:	48 89 e1             	mov    rcx,rsp
 80004fc:	48 8b 45 e0          	mov    rax,QWORD PTR [rbp-0x20]
 8000500:	48 89 41 28          	mov    QWORD PTR [rcx+0x28],rax
 8000504:	48 8b 45 d8          	mov    rax,QWORD PTR [rbp-0x28]
 8000508:	48 89 41 20          	mov    QWORD PTR [rcx+0x20],rax
 800050c:	48 8b 45 d0          	mov    rax,QWORD PTR [rbp-0x30]
 8000510:	48 89 41 18          	mov    QWORD PTR [rcx+0x18],rax
 8000514:	48 8b 45 20          	mov    rax,QWORD PTR [rbp+0x20]
 8000518:	48 89 41 10          	mov    QWORD PTR [rcx+0x10],rax
 800051c:	48 8b 45 18          	mov    rax,QWORD PTR [rbp+0x18]
 8000520:	48 89 41 08          	mov    QWORD PTR [rcx+0x8],rax
 8000524:	48 8b 45 10          	mov    rax,QWORD PTR [rbp+0x10]
 8000528:	48 89 01             	mov    QWORD PTR [rcx],rax
 800052b:	e8 1a 01 00 00       	call   800064a <bytes.index_slice>
 8000530:	48 89 c1             	mov    rcx,rax
 8000533:	48 89 d0             	mov    rax,rdx
 8000536:	48 89 4d c0          	mov    QWORD PTR [rbp-0x40],rcx
 800053a:	48 89 45 c8          	mov    QWORD PTR [rbp-0x38],rax
 800053e:	48 83 ec d0          	sub    rsp,0xffffffffffffffd0
 8000542:	48 8d 45 c0          	lea    rax,[rbp-0x40]
 8000546:	eb 3d                	jmp    8000585 <bytes.index+0x116>
 8000548:	0f b6 7d 30          	movzx  edi,BYTE PTR [rbp+0x30]
 800054c:	48 83 ec 20          	sub    rsp,0x20
 8000550:	48 89 e1             	mov    rcx,rsp
 8000553:	48 8b 45 20          	mov    rax,QWORD PTR [rbp+0x20]
 8000557:	48 89 41 10          	mov    QWORD PTR [rcx+0x10],rax
 800055b:	48 8b 45 18          	mov    rax,QWORD PTR [rbp+0x18]
 800055f:	48 89 41 08          	mov    QWORD PTR [rcx+0x8],rax
 8000563:	48 8b 45 10          	mov    rax,QWORD PTR [rbp+0x10]
 8000567:	48 89 01             	mov    QWORD PTR [rcx],rax
 800056a:	e8 22 00 00 00       	call   8000591 <bytes.index_byte>
 800056f:	48 89 c1             	mov    rcx,rax
 8000572:	48 89 d0             	mov    rax,rdx
 8000575:	48 89 4d b0          	mov    QWORD PTR [rbp-0x50],rcx
 8000579:	48 89 45 b8          	mov    QWORD PTR [rbp-0x48],rax
 800057d:	48 83 ec e0          	sub    rsp,0xffffffffffffffe0
 8000581:	48 8d 45 b0          	lea    rax,[rbp-0x50]
 8000585:	48 89 c1             	mov    rcx,rax
 8000588:	48 8b 01             	mov    rax,QWORD PTR [rcx]
 800058b:	48 8b 51 08          	mov    rdx,QWORD PTR [rcx+0x8]
 800058f:	c9                   	leave  
 8000590:	c3                   	ret    

0000000008000591 <bytes.index_byte>:
 8000591:	55                   	push   rbp
 8000592:	48 89 e5             	mov    rbp,rsp
 8000595:	48 83 ec 48          	sub    rsp,0x48
 8000599:	53                   	push   rbx
 800059a:	41 54                	push   r12
 800059c:	41 55                	push   r13
 800059e:	c7 45 c8 c6 b8 a0 97 	mov    DWORD PTR [rbp-0x38],0x97a0b8c6
 80005a5:	bb 00 00 00 00       	mov    ebx,0x0
 80005aa:	48 8b 45 18          	mov    rax,QWORD PTR [rbp+0x18]
 80005ae:	48 39 c3             	cmp    rbx,rax
 80005b1:	0f 83 84 00 00 00    	jae    800063b <bytes.index_byte+0xaa>
 80005b7:	48 8b 4d 10          	mov    rcx,QWORD PTR [rbp+0x10]
 80005bb:	49 89 cc             	mov    r12,rcx
 80005be:	49 01 dc             	add    r12,rbx
 80005c1:	48 39 c3             	cmp    rbx,rax
 80005c4:	72 4d                	jb     8000613 <bytes.index_byte+0x82>
 80005c6:	48 8d 05 63 fe ff 77 	lea    rax,[rip+0x77fffe63]        # 80000430 <strdata.239>
 80005cd:	48 89 45 d8          	mov    QWORD PTR [rbp-0x28],rax
 80005d1:	48 c7 45 e0 28 00 00 	mov    QWORD PTR [rbp-0x20],0x28
 80005d8:	00 
 80005d9:	48 c7 45 e8 28 00 00 	mov    QWORD PTR [rbp-0x18],0x28
 80005e0:	00 
 80005e1:	48 83 ec 20          	sub    rsp,0x20
 80005e5:	48 89 e1             	mov    rcx,rsp
 80005e8:	48 8b 45 e8          	mov    rax,QWORD PTR [rbp-0x18]
 80005ec:	48 89 41 10          	mov    QWORD PTR [rcx+0x10],rax
 80005f0:	48 8b 45 e0          	mov    rax,QWORD PTR [rbp-0x20]
 80005f4:	48 89 41 08          	mov    QWORD PTR [rcx+0x8],rax
 80005f8:	48 8b 45 d8          	mov    rax,QWORD PTR [rbp-0x28]
 80005fc:	48 89 01             	mov    QWORD PTR [rcx],rax
 80005ff:	41 89 fd             	mov    r13d,edi
 8000602:	bf 00 00 00 00       	mov    edi,0x0
 8000607:	e8 b3 52 01 00       	call   80158bf <rt.abort_fixed>
 800060c:	44 89 ef             	mov    edi,r13d
 800060f:	48 83 ec e0          	sub    rsp,0xffffffffffffffe0
 8000613:	41 0f b6 0c 24       	movzx  ecx,BYTE PTR [r12]
 8000618:	40 0f b6 c7          	movzx  eax,dil
 800061c:	39 c1                	cmp    ecx,eax
 800061e:	74 06                	je     8000626 <bytes.index_byte+0x95>
 8000620:	48 83 c3 01          	add    rbx,0x1
 8000624:	eb 84                	jmp    80005aa <bytes.index_byte+0x19>
 8000626:	c7 45 f0 7e e5 8c 67 	mov    DWORD PTR [rbp-0x10],0x678ce57e
 800062d:	48 89 5d f8          	mov    QWORD PTR [rbp-0x8],rbx
 8000631:	48 8b 45 f0          	mov    rax,QWORD PTR [rbp-0x10]
 8000635:	48 8b 55 f8          	mov    rdx,QWORD PTR [rbp-0x8]
 8000639:	eb 08                	jmp    8000643 <bytes.index_byte+0xb2>
 800063b:	48 8b 45 c8          	mov    rax,QWORD PTR [rbp-0x38]
 800063f:	48 8b 55 d0          	mov    rdx,QWORD PTR [rbp-0x30]
 8000643:	41 5d                	pop    r13
 8000645:	41 5c                	pop    r12
 8000647:	5b                   	pop    rbx
 8000648:	c9                   	leave  
 8000649:	c3                   	ret    

000000000800064a <bytes.index_slice>:
 800064a:	55                   	push   rbp
 800064b:	48 89 e5             	mov    rbp,rsp
 800064e:	48 83 ec 58          	sub    rsp,0x58
 8000652:	53                   	push   rbx
 8000653:	48 8b 45 30          	mov    rax,QWORD PTR [rbp+0x30]
 8000657:	48 83 f8 00          	cmp    rax,0x0
 800065b:	0f 84 f2 00 00 00    	je     8000753 <bytes.index_slice+0x109>
 8000661:	48 83 f8 01          	cmp    rax,0x1
 8000665:	74 56                	je     80006bd <bytes.index_slice+0x73>
 8000667:	48 83 ec 30          	sub    rsp,0x30
 800066b:	48 89 e1             	mov    rcx,rsp
 800066e:	48 8b 45 38          	mov    rax,QWORD PTR [rbp+0x38]
 8000672:	48 89 41 28          	mov    QWORD PTR [rcx+0x28],rax
 8000676:	48 8b 45 30          	mov    rax,QWORD PTR [rbp+0x30]
 800067a:	48 89 41 20          	mov    QWORD PTR [rcx+0x20],rax
 800067e:	48 8b 45 28          	mov    rax,QWORD PTR [rbp+0x28]
 8000682:	48 89 41 18          	mov    QWORD PTR [rcx+0x18],rax
 8000686:	48 8b 45 20          	mov    rax,QWORD PTR [rbp+0x20]
 800068a:	48 89 41 10          	mov    QWORD PTR [rcx+0x10],rax
 800068e:	48 8b 45 18          	mov    rax,QWORD PTR [rbp+0x18]
 8000692:	48 89 41 08          	mov    QWORD PTR [rcx+0x8],rax
 8000696:	48 8b 45 10          	mov    rax,QWORD PTR [rbp+0x10]
 800069a:	48 89 01             	mov    QWORD PTR [rcx],rax
 800069d:	e8 a3 0d 00 00       	call   8001445 <bytes.index_tw>
 80006a2:	48 89 c1             	mov    rcx,rax
 80006a5:	48 89 d0             	mov    rax,rdx
 80006a8:	48 89 4d c8          	mov    QWORD PTR [rbp-0x38],rcx
 80006ac:	48 89 45 d0          	mov    QWORD PTR [rbp-0x30],rax
 80006b0:	48 83 ec d0          	sub    rsp,0xffffffffffffffd0
 80006b4:	48 8d 45 c8          	lea    rax,[rbp-0x38]
 80006b8:	e9 a9 00 00 00       	jmp    8000766 <bytes.index_slice+0x11c>
 80006bd:	48 8b 4d 28          	mov    rcx,QWORD PTR [rbp+0x28]
 80006c1:	48 89 cb             	mov    rbx,rcx
 80006c4:	48 83 c3 00          	add    rbx,0x0
 80006c8:	48 83 f8 00          	cmp    rax,0x0
 80006cc:	77 47                	ja     8000715 <bytes.index_slice+0xcb>
 80006ce:	48 8d 05 83 fd ff 77 	lea    rax,[rip+0x77fffd83]        # 80000458 <strdata.279>
 80006d5:	48 89 45 e8          	mov    QWORD PTR [rbp-0x18],rax
 80006d9:	48 c7 45 f0 28 00 00 	mov    QWORD PTR [rbp-0x10],0x28
 80006e0:	00 
 80006e1:	48 c7 45 f8 28 00 00 	mov    QWORD PTR [rbp-0x8],0x28
 80006e8:	00 
 80006e9:	48 83 ec 20          	sub    rsp,0x20
 80006ed:	48 89 e1             	mov    rcx,rsp
 80006f0:	48 8b 45 f8          	mov    rax,QWORD PTR [rbp-0x8]
 80006f4:	48 89 41 10          	mov    QWORD PTR [rcx+0x10],rax
 80006f8:	48 8b 45 f0          	mov    rax,QWORD PTR [rbp-0x10]
 80006fc:	48 89 41 08          	mov    QWORD PTR [rcx+0x8],rax
 8000700:	48 8b 45 e8          	mov    rax,QWORD PTR [rbp-0x18]
 8000704:	48 89 01             	mov    QWORD PTR [rcx],rax
 8000707:	bf 00 00 00 00       	mov    edi,0x0
 800070c:	e8 ae 51 01 00       	call   80158bf <rt.abort_fixed>
 8000711:	48 83 ec e0          	sub    rsp,0xffffffffffffffe0
 8000715:	0f b6 3b             	movzx  edi,BYTE PTR [rbx]
 8000718:	48 83 ec 20          	sub    rsp,0x20
 800071c:	48 89 e1             	mov    rcx,rsp
 800071f:	48 8b 45 20          	mov    rax,QWORD PTR [rbp+0x20]
 8000723:	48 89 41 10          	mov    QWORD PTR [rcx+0x10],rax
 8000727:	48 8b 45 18          	mov    rax,QWORD PTR [rbp+0x18]
 800072b:	48 89 41 08          	mov    QWORD PTR [rcx+0x8],rax
 800072f:	48 8b 45 10          	mov    rax,QWORD PTR [rbp+0x10]
 8000733:	48 89 01             	mov    QWORD PTR [rcx],rax
 8000736:	e8 56 fe ff ff       	call   8000591 <bytes.index_byte>
 800073b:	48 89 c1             	mov    rcx,rax
 800073e:	48 89 d0             	mov    rax,rdx
 8000741:	48 89 4d b8          	mov    QWORD PTR [rbp-0x48],rcx
 8000745:	48 89 45 c0          	mov    QWORD PTR [rbp-0x40],rax
 8000749:	48 83 ec e0          	sub    rsp,0xffffffffffffffe0
 800074d:	48 8d 45 b8          	lea    rax,[rbp-0x48]
 8000751:	eb 13                	jmp    8000766 <bytes.index_slice+0x11c>
 8000753:	c7 45 d8 7e e5 8c 67 	mov    DWORD PTR [rbp-0x28],0x678ce57e
 800075a:	48 c7 45 e0 00 00 00 	mov    QWORD PTR [rbp-0x20],0x0
 8000761:	00 
 8000762:	48 8d 45 d8          	lea    rax,[rbp-0x28]
 8000766:	48 89 c1             	mov    rcx,rax
 8000769:	48 8b 01             	mov    rax,QWORD PTR [rcx]
 800076c:	48 8b 51 08          	mov    rdx,QWORD PTR [rcx+0x8]
 8000770:	5b                   	pop    rbx
 8000771:	c9                   	leave  
 8000772:	c3                   	ret    

0000000008000773 <bytes.rindex>:
 8000773:	55                   	push   rbp
 8000774:	48 89 e5             	mov    rbp,rsp
 8000777:	48 83 ec 50          	sub    rsp,0x50
 800077b:	8b 45 28             	mov    eax,DWORD PTR [rbp+0x28]
 800077e:	3d 5d 3e 9e 71       	cmp    eax,0x719e3e5d
 8000783:	0f 84 c2 00 00 00    	je     800084b <bytes.rindex+0xd8>
 8000789:	3d 4e 4e f7 44       	cmp    eax,0x44f74e4e
 800078e:	74 4c                	je     80007dc <bytes.rindex+0x69>
 8000790:	48 8d 05 e9 fc ff 77 	lea    rax,[rip+0x77fffce9]        # 80000480 <strdata.325>
 8000797:	48 89 45 e8          	mov    QWORD PTR [rbp-0x18],rax
 800079b:	48 c7 45 f0 28 00 00 	mov    QWORD PTR [rbp-0x10],0x28
 80007a2:	00 
 80007a3:	48 c7 45 f8 28 00 00 	mov    QWORD PTR [rbp-0x8],0x28
 80007aa:	00 
 80007ab:	48 83 ec 20          	sub    rsp,0x20
 80007af:	48 89 e1             	mov    rcx,rsp
 80007b2:	48 8b 45 f8          	mov    rax,QWORD PTR [rbp-0x8]
 80007b6:	48 89 41 10          	mov    QWORD PTR [rcx+0x10],rax
 80007ba:	48 8b 45 f0          	mov    rax,QWORD PTR [rbp-0x10]
 80007be:	48 89 41 08          	mov    QWORD PTR [rcx+0x8],rax
 80007c2:	48 8b 45 e8          	mov    rax,QWORD PTR [rbp-0x18]
 80007c6:	48 89 01             	mov    QWORD PTR [rcx],rax
 80007c9:	bf 04 00 00 00       	mov    edi,0x4
 80007ce:	e8 ec 50 01 00       	call   80158bf <rt.abort_fixed>
 80007d3:	48 83 ec e0          	sub    rsp,0xffffffffffffffe0
 80007d7:	e9 b0 00 00 00       	jmp    800088c <bytes.rindex+0x119>
 80007dc:	48 8b 45 30          	mov    rax,QWORD PTR [rbp+0x30]
 80007e0:	48 89 45 d0          	mov    QWORD PTR [rbp-0x30],rax
 80007e4:	48 8b 45 38          	mov    rax,QWORD PTR [rbp+0x38]
 80007e8:	48 89 45 d8          	mov    QWORD PTR [rbp-0x28],rax
 80007ec:	48 8b 45 40          	mov    rax,QWORD PTR [rbp+0x40]
 80007f0:	48 89 45 e0          	mov    QWORD PTR [rbp-0x20],rax
 80007f4:	48 83 ec 30          	sub    rsp,0x30
 80007f8:	48 89 e1             	mov    rcx,rsp
 80007fb:	48 8b 45 e0          	mov    rax,QWORD PTR [rbp-0x20]
 80007ff:	48 89 41 28          	mov    QWORD PTR [rcx+0x28],rax
 8000803:	48 8b 45 d8          	mov    rax,QWORD PTR [rbp-0x28]
 8000807:	48 89 41 20          	mov    QWORD PTR [rcx+0x20],rax
 800080b:	48 8b 45 d0          	mov    rax,QWORD PTR [rbp-0x30]
 800080f:	48 89 41 18          	mov    QWORD PTR [rcx+0x18],rax
 8000813:	48 8b 45 20          	mov    rax,QWORD PTR [rbp+0x20]
 8000817:	48 89 41 10          	mov    QWORD PTR [rcx+0x10],rax
 800081b:	48 8b 45 18          	mov    rax,QWORD PTR [rbp+0x18]
 800081f:	48 89 41 08          	mov    QWORD PTR [rcx+0x8],rax
 8000823:	48 8b 45 10          	mov    rax,QWORD PTR [rbp+0x10]
 8000827:	48 89 01             	mov    QWORD PTR [rcx],rax
 800082a:	e8 29 01 00 00       	call   8000958 <bytes.rindex_slice>
 800082f:	48 89 c1             	mov    rcx,rax
 8000832:	48 89 d0             	mov    rax,rdx
 8000835:	48 89 4d c0          	mov    QWORD PTR [rbp-0x40],rcx
 8000839:	48 89 45 c8          	mov    QWORD PTR [rbp-0x38],rax
 800083d:	48 83 ec d0          	sub    rsp,0xffffffffffffffd0
 8000841:	48 8b 45 c0          	mov    rax,QWORD PTR [rbp-0x40]
 8000845:	48 8b 55 c8          	mov    rdx,QWORD PTR [rbp-0x38]
 8000849:	eb 41                	jmp    800088c <bytes.rindex+0x119>
 800084b:	0f b6 7d 30          	movzx  edi,BYTE PTR [rbp+0x30]
 800084f:	48 83 ec 20          	sub    rsp,0x20
 8000853:	48 89 e1             	mov    rcx,rsp
 8000856:	48 8b 45 20          	mov    rax,QWORD PTR [rbp+0x20]
 800085a:	48 89 41 10          	mov    QWORD PTR [rcx+0x10],rax
 800085e:	48 8b 45 18          	mov    rax,QWORD PTR [rbp+0x18]
 8000862:	48 89 41 08          	mov    QWORD PTR [rcx+0x8],rax
 8000866:	48 8b 45 10          	mov    rax,QWORD PTR [rbp+0x10]
 800086a:	48 89 01             	mov    QWORD PTR [rcx],rax
 800086d:	e8 1c 00 00 00       	call   800088e <bytes.rindex_byte>
 8000872:	48 89 c1             	mov    rcx,rax
 8000875:	48 89 d0             	mov    rax,rdx
 8000878:	48 89 4d b0          	mov    QWORD PTR [rbp-0x50],rcx
 800087c:	48 89 45 b8          	mov    QWORD PTR [rbp-0x48],rax
 8000880:	48 83 ec e0          	sub    rsp,0xffffffffffffffe0
 8000884:	48 8b 45 b0          	mov    rax,QWORD PTR [rbp-0x50]
 8000888:	48 8b 55 b8          	mov    rdx,QWORD PTR [rbp-0x48]
 800088c:	c9                   	leave  
 800088d:	c3                   	ret    

000000000800088e <bytes.rindex_byte>:
 800088e:	55                   	push   rbp
 800088f:	48 89 e5             	mov    rbp,rsp
 8000892:	48 83 ec 48          	sub    rsp,0x48
 8000896:	53                   	push   rbx
 8000897:	41 54                	push   r12
 8000899:	41 55                	push   r13
 800089b:	c7 45 c8 c6 b8 a0 97 	mov    DWORD PTR [rbp-0x38],0x97a0b8c6
 80008a2:	48 8b 5d 18          	mov    rbx,QWORD PTR [rbp+0x18]
 80008a6:	48 83 fb 00          	cmp    rbx,0x0
 80008aa:	0f 86 99 00 00 00    	jbe    8000949 <bytes.rindex_byte+0xbb>
 80008b0:	48 8b 55 10          	mov    rdx,QWORD PTR [rbp+0x10]
 80008b4:	48 8b 45 18          	mov    rax,QWORD PTR [rbp+0x18]
 80008b8:	48 89 d9             	mov    rcx,rbx
 80008bb:	48 83 e9 01          	sub    rcx,0x1
 80008bf:	49 89 d4             	mov    r12,rdx
 80008c2:	49 01 cc             	add    r12,rcx
 80008c5:	48 39 c1             	cmp    rcx,rax
 80008c8:	72 4d                	jb     8000917 <bytes.rindex_byte+0x89>
 80008ca:	48 8d 05 d7 fb ff 77 	lea    rax,[rip+0x77fffbd7]        # 800004a8 <strdata.358>
 80008d1:	48 89 45 d8          	mov    QWORD PTR [rbp-0x28],rax
 80008d5:	48 c7 45 e0 28 00 00 	mov    QWORD PTR [rbp-0x20],0x28
 80008dc:	00 
 80008dd:	48 c7 45 e8 28 00 00 	mov    QWORD PTR [rbp-0x18],0x28
 80008e4:	00 
 80008e5:	48 83 ec 20          	sub    rsp,0x20
 80008e9:	48 89 e1             	mov    rcx,rsp
 80008ec:	48 8b 45 e8          	mov    rax,QWORD PTR [rbp-0x18]
 80008f0:	48 89 41 10          	mov    QWORD PTR [rcx+0x10],rax
 80008f4:	48 8b 45 e0          	mov    rax,QWORD PTR [rbp-0x20]
 80008f8:	48 89 41 08          	mov    QWORD PTR [rcx+0x8],rax
 80008fc:	48 8b 45 d8          	mov    rax,QWORD PTR [rbp-0x28]
 8000900:	48 89 01             	mov    QWORD PTR [rcx],rax
 8000903:	41 89 fd             	mov    r13d,edi
 8000906:	bf 00 00 00 00       	mov    edi,0x0
 800090b:	e8 af 4f 01 00       	call   80158bf <rt.abort_fixed>
 8000910:	44 89 ef             	mov    edi,r13d
 8000913:	48 83 ec e0          	sub    rsp,0xffffffffffffffe0
 8000917:	41 0f b6 0c 24       	movzx  ecx,BYTE PTR [r12]
 800091c:	40 0f b6 c7          	movzx  eax,dil
 8000920:	39 c1                	cmp    ecx,eax
 8000922:	74 09                	je     800092d <bytes.rindex_byte+0x9f>
 8000924:	48 83 eb 01          	sub    rbx,0x1
 8000928:	e9 79 ff ff ff       	jmp    80008a6 <bytes.rindex_byte+0x18>
 800092d:	c7 45 f0 7e e5 8c 67 	mov    DWORD PTR [rbp-0x10],0x678ce57e
 8000934:	48 89 d8             	mov    rax,rbx
 8000937:	48 83 e8 01          	sub    rax,0x1
 800093b:	48 89 45 f8          	mov    QWORD PTR [rbp-0x8],rax
 800093f:	48 8b 45 f0          	mov    rax,QWORD PTR [rbp-0x10]
 8000943:	48 8b 55 f8          	mov    rdx,QWORD PTR [rbp-0x8]
 8000947:	eb 08                	jmp    8000951 <bytes.rindex_byte+0xc3>
 8000949:	48 8b 45 c8          	mov    rax,QWORD PTR [rbp-0x38]
 800094d:	48 8b 55 d0          	mov    rdx,QWORD PTR [rbp-0x30]
 8000951:	41 5d                	pop    r13
 8000953:	41 5c                	pop    r12
 8000955:	5b                   	pop    rbx
 8000956:	c9                   	leave  
 8000957:	c3                   	ret    

0000000008000958 <bytes.rindex_slice>:
 8000958:	55                   	push   rbp
 8000959:	48 89 e5             	mov    rbp,rsp
 800095c:	48 83 ec 58          	sub    rsp,0x58
 8000960:	53                   	push   rbx
 8000961:	41 54                	push   r12
 8000963:	41 55                	push   r13
 8000965:	41 56                	push   r14
 8000967:	41 57                	push   r15
 8000969:	c7 45 b0 c6 b8 a0 97 	mov    DWORD PTR [rbp-0x50],0x97a0b8c6
 8000970:	bb 00 00 00 00       	mov    ebx,0x0
 8000975:	48 8b 45 30          	mov    rax,QWORD PTR [rbp+0x30]
 8000979:	48 89 d9             	mov    rcx,rbx
 800097c:	48 01 c1             	add    rcx,rax
 800097f:	4c 8b 6d 18          	mov    r13,QWORD PTR [rbp+0x18]
 8000983:	4c 39 e9             	cmp    rcx,r13
 8000986:	0f 87 f7 00 00 00    	ja     8000a83 <bytes.rindex_slice+0x12b>
 800098c:	4d 89 ec             	mov    r12,r13
 800098f:	49 29 dc             	sub    r12,rbx
 8000992:	4c 8b 7d 10          	mov    r15,QWORD PTR [rbp+0x10]
 8000996:	4d 89 e6             	mov    r14,r12
 8000999:	49 29 c6             	sub    r14,rax
 800099c:	4d 39 ee             	cmp    r14,r13
 800099f:	0f 96 c0             	setbe  al
 80009a2:	0f b6 c0             	movzx  eax,al
 80009a5:	4d 39 ec             	cmp    r12,r13
 80009a8:	0f 96 c1             	setbe  cl
 80009ab:	0f b6 c9             	movzx  ecx,cl
 80009ae:	85 c1                	test   ecx,eax
 80009b0:	75 47                	jne    80009f9 <bytes.rindex_slice+0xa1>
 80009b2:	48 8d 05 17 fb ff 77 	lea    rax,[rip+0x77fffb17]        # 800004d0 <strdata.411>
 80009b9:	48 89 45 d8          	mov    QWORD PTR [rbp-0x28],rax
 80009bd:	48 c7 45 e0 28 00 00 	mov    QWORD PTR [rbp-0x20],0x28
 80009c4:	00 
 80009c5:	48 c7 45 e8 28 00 00 	mov    QWORD PTR [rbp-0x18],0x28
 80009cc:	00 
 80009cd:	48 83 ec 20          	sub    rsp,0x20
 80009d1:	48 89 e1             	mov    rcx,rsp
 80009d4:	48 8b 45 e8          	mov    rax,QWORD PTR [rbp-0x18]
 80009d8:	48 89 41 10          	mov    QWORD PTR [rcx+0x10],rax
 80009dc:	48 8b 45 e0          	mov    rax,QWORD PTR [rbp-0x20]
 80009e0:	48 89 41 08          	mov    QWORD PTR [rcx+0x8],rax
 80009e4:	48 8b 45 d8          	mov    rax,QWORD PTR [rbp-0x28]
 80009e8:	48 89 01             	mov    QWORD PTR [rcx],rax
 80009eb:	bf 00 00 00 00       	mov    edi,0x0
 80009f0:	e8 ca 4e 01 00       	call   80158bf <rt.abort_fixed>
 80009f5:	48 83 ec e0          	sub    rsp,0xffffffffffffffe0
 80009f9:	4c 89 fa             	mov    rdx,r15
 80009fc:	4c 01 f2             	add    rdx,r14
 80009ff:	4c 89 e1             	mov    rcx,r12
 8000a02:	4c 29 f1             	sub    rcx,r14
 8000a05:	4c 89 e8             	mov    rax,r13
 8000a08:	4c 29 f0             	sub    rax,r14
 8000a0b:	48 89 55 c0          	mov    QWORD PTR [rbp-0x40],rdx
 8000a0f:	48 89 4d c8          	mov    QWORD PTR [rbp-0x38],rcx
 8000a13:	48 89 45 d0          	mov    QWORD PTR [rbp-0x30],rax
 8000a17:	48 83 ec 30          	sub    rsp,0x30
 8000a1b:	48 89 e1             	mov    rcx,rsp
 8000a1e:	48 8b 45 38          	mov    rax,QWORD PTR [rbp+0x38]
 8000a22:	48 89 41 28          	mov    QWORD PTR [rcx+0x28],rax
 8000a26:	48 8b 45 30          	mov    rax,QWORD PTR [rbp+0x30]
 8000a2a:	48 89 41 20          	mov    QWORD PTR [rcx+0x20],rax
 8000a2e:	48 8b 45 28          	mov    rax,QWORD PTR [rbp+0x28]
 8000a32:	48 89 41 18          	mov    QWORD PTR [rcx+0x18],rax
 8000a36:	48 8b 45 d0          	mov    rax,QWORD PTR [rbp-0x30]
 8000a3a:	48 89 41 10          	mov    QWORD PTR [rcx+0x10],rax
 8000a3e:	48 8b 45 c8          	mov    rax,QWORD PTR [rbp-0x38]
 8000a42:	48 89 41 08          	mov    QWORD PTR [rcx+0x8],rax
 8000a46:	48 8b 45 c0          	mov    rax,QWORD PTR [rbp-0x40]
 8000a4a:	48 89 01             	mov    QWORD PTR [rcx],rax
 8000a4d:	e8 0b f9 ff ff       	call   800035d <bytes.equal>
 8000a52:	48 83 ec d0          	sub    rsp,0xffffffffffffffd0
 8000a56:	83 f8 00             	cmp    eax,0x0
 8000a59:	75 09                	jne    8000a64 <bytes.rindex_slice+0x10c>
 8000a5b:	48 83 c3 01          	add    rbx,0x1
 8000a5f:	e9 11 ff ff ff       	jmp    8000975 <bytes.rindex_slice+0x1d>
 8000a64:	c7 45 f0 7e e5 8c 67 	mov    DWORD PTR [rbp-0x10],0x678ce57e
 8000a6b:	48 8b 45 30          	mov    rax,QWORD PTR [rbp+0x30]
 8000a6f:	48 f7 d8             	neg    rax
 8000a72:	4c 01 e0             	add    rax,r12
 8000a75:	48 89 45 f8          	mov    QWORD PTR [rbp-0x8],rax
 8000a79:	48 8b 45 f0          	mov    rax,QWORD PTR [rbp-0x10]
 8000a7d:	48 8b 55 f8          	mov    rdx,QWORD PTR [rbp-0x8]
 8000a81:	eb 08                	jmp    8000a8b <bytes.rindex_slice+0x133>
 8000a83:	48 8b 45 b0          	mov    rax,QWORD PTR [rbp-0x50]
 8000a87:	48 8b 55 b8          	mov    rdx,QWORD PTR [rbp-0x48]
 8000a8b:	41 5f                	pop    r15
 8000a8d:	41 5e                	pop    r14
 8000a8f:	41 5d                	pop    r13
 8000a91:	41 5c                	pop    r12
 8000a93:	5b                   	pop    rbx
 8000a94:	c9                   	leave  
 8000a95:	c3                   	ret    

0000000008000a96 <bytes.reverse>:
 8000a96:	55                   	push   rbp
 8000a97:	48 89 e5             	mov    rbp,rsp
 8000a9a:	48 83 ec 68          	sub    rsp,0x68
 8000a9e:	53                   	push   rbx
 8000a9f:	41 54                	push   r12
 8000aa1:	41 55                	push   r13
 8000aa3:	41 56                	push   r14
 8000aa5:	41 57                	push   r15
 8000aa7:	48 8b 45 18          	mov    rax,QWORD PTR [rbp+0x18]
 8000aab:	48 83 f8 00          	cmp    rax,0x0
 8000aaf:	0f 84 99 01 00 00    	je     8000c4e <bytes.reverse+0x1b8>
 8000ab5:	49 89 c4             	mov    r12,rax
 8000ab8:	49 83 ec 01          	sub    r12,0x1
 8000abc:	bb 00 00 00 00       	mov    ebx,0x0
 8000ac1:	4c 39 e3             	cmp    rbx,r12
 8000ac4:	0f 83 84 01 00 00    	jae    8000c4e <bytes.reverse+0x1b8>
 8000aca:	48 8b 4d 10          	mov    rcx,QWORD PTR [rbp+0x10]
 8000ace:	48 8b 45 18          	mov    rax,QWORD PTR [rbp+0x18]
 8000ad2:	49 89 cd             	mov    r13,rcx
 8000ad5:	49 01 dd             	add    r13,rbx
 8000ad8:	48 39 c3             	cmp    rbx,rax
 8000adb:	72 47                	jb     8000b24 <bytes.reverse+0x8e>
 8000add:	48 8d 05 14 fa ff 77 	lea    rax,[rip+0x77fffa14]        # 800004f8 <strdata.459>
 8000ae4:	48 89 45 a0          	mov    QWORD PTR [rbp-0x60],rax
 8000ae8:	48 c7 45 a8 2a 00 00 	mov    QWORD PTR [rbp-0x58],0x2a
 8000aef:	00 
 8000af0:	48 c7 45 b0 2a 00 00 	mov    QWORD PTR [rbp-0x50],0x2a
 8000af7:	00 
 8000af8:	48 83 ec 20          	sub    rsp,0x20
 8000afc:	48 89 e1             	mov    rcx,rsp
 8000aff:	48 8b 45 b0          	mov    rax,QWORD PTR [rbp-0x50]
 8000b03:	48 89 41 10          	mov    QWORD PTR [rcx+0x10],rax
 8000b07:	48 8b 45 a8          	mov    rax,QWORD PTR [rbp-0x58]
 8000b0b:	48 89 41 08          	mov    QWORD PTR [rcx+0x8],rax
 8000b0f:	48 8b 45 a0          	mov    rax,QWORD PTR [rbp-0x60]
 8000b13:	48 89 01             	mov    QWORD PTR [rcx],rax
 8000b16:	bf 00 00 00 00       	mov    edi,0x0
 8000b1b:	e8 9f 4d 01 00       	call   80158bf <rt.abort_fixed>
 8000b20:	48 83 ec e0          	sub    rsp,0xffffffffffffffe0
 8000b24:	45 0f b6 6d 00       	movzx  r13d,BYTE PTR [r13+0x0]
 8000b29:	48 8b 4d 10          	mov    rcx,QWORD PTR [rbp+0x10]
 8000b2d:	48 8b 45 18          	mov    rax,QWORD PTR [rbp+0x18]
 8000b31:	49 89 ce             	mov    r14,rcx
 8000b34:	49 01 de             	add    r14,rbx
 8000b37:	48 39 c3             	cmp    rbx,rax
 8000b3a:	72 47                	jb     8000b83 <bytes.reverse+0xed>
 8000b3c:	48 8d 05 e5 f9 ff 77 	lea    rax,[rip+0x77fff9e5]        # 80000528 <strdata.471>
 8000b43:	48 89 45 b8          	mov    QWORD PTR [rbp-0x48],rax
 8000b47:	48 c7 45 c0 2a 00 00 	mov    QWORD PTR [rbp-0x40],0x2a
 8000b4e:	00 
 8000b4f:	48 c7 45 c8 2a 00 00 	mov    QWORD PTR [rbp-0x38],0x2a
 8000b56:	00 
 8000b57:	48 83 ec 20          	sub    rsp,0x20
 8000b5b:	48 89 e1             	mov    rcx,rsp
 8000b5e:	48 8b 45 c8          	mov    rax,QWORD PTR [rbp-0x38]
 8000b62:	48 89 41 10          	mov    QWORD PTR [rcx+0x10],rax
 8000b66:	48 8b 45 c0          	mov    rax,QWORD PTR [rbp-0x40]
 8000b6a:	48 89 41 08          	mov    QWORD PTR [rcx+0x8],rax
 8000b6e:	48 8b 45 b8          	mov    rax,QWORD PTR [rbp-0x48]
 8000b72:	48 89 01             	mov    QWORD PTR [rcx],rax
 8000b75:	bf 00 00 00 00       	mov    edi,0x0
 8000b7a:	e8 40 4d 01 00       	call   80158bf <rt.abort_fixed>
 8000b7f:	48 83 ec e0          	sub    rsp,0xffffffffffffffe0
 8000b83:	48 8b 4d 10          	mov    rcx,QWORD PTR [rbp+0x10]
 8000b87:	48 8b 45 18          	mov    rax,QWORD PTR [rbp+0x18]
 8000b8b:	49 89 cf             	mov    r15,rcx
 8000b8e:	4d 01 e7             	add    r15,r12
 8000b91:	49 39 c4             	cmp    r12,rax
 8000b94:	72 47                	jb     8000bdd <bytes.reverse+0x147>
 8000b96:	48 8d 05 bb f9 ff 77 	lea    rax,[rip+0x77fff9bb]        # 80000558 <strdata.482>
 8000b9d:	48 89 45 d0          	mov    QWORD PTR [rbp-0x30],rax
 8000ba1:	48 c7 45 d8 2a 00 00 	mov    QWORD PTR [rbp-0x28],0x2a
 8000ba8:	00 
 8000ba9:	48 c7 45 e0 2a 00 00 	mov    QWORD PTR [rbp-0x20],0x2a
 8000bb0:	00 
 8000bb1:	48 83 ec 20          	sub    rsp,0x20
 8000bb5:	48 89 e1             	mov    rcx,rsp
 8000bb8:	48 8b 45 e0          	mov    rax,QWORD PTR [rbp-0x20]
 8000bbc:	48 89 41 10          	mov    QWORD PTR [rcx+0x10],rax
 8000bc0:	48 8b 45 d8          	mov    rax,QWORD PTR [rbp-0x28]
 8000bc4:	48 89 41 08          	mov    QWORD PTR [rcx+0x8],rax
 8000bc8:	48 8b 45 d0          	mov    rax,QWORD PTR [rbp-0x30]
 8000bcc:	48 89 01             	mov    QWORD PTR [rcx],rax
 8000bcf:	bf 00 00 00 00       	mov    edi,0x0
 8000bd4:	e8 e6 4c 01 00       	call   80158bf <rt.abort_fixed>
 8000bd9:	48 83 ec e0          	sub    rsp,0xffffffffffffffe0
 8000bdd:	41 0f b6 07          	movzx  eax,BYTE PTR [r15]
 8000be1:	41 88 06             	mov    BYTE PTR [r14],al
 8000be4:	48 8b 4d 10          	mov    rcx,QWORD PTR [rbp+0x10]
 8000be8:	48 8b 45 18          	mov    rax,QWORD PTR [rbp+0x18]
 8000bec:	49 89 ce             	mov    r14,rcx
 8000bef:	4d 01 e6             	add    r14,r12
 8000bf2:	49 39 c4             	cmp    r12,rax
 8000bf5:	72 47                	jb     8000c3e <bytes.reverse+0x1a8>
 8000bf7:	48 8d 05 8a f9 ff 77 	lea    rax,[rip+0x77fff98a]        # 80000588 <strdata.494>
 8000bfe:	48 89 45 e8          	mov    QWORD PTR [rbp-0x18],rax
 8000c02:	48 c7 45 f0 2a 00 00 	mov    QWORD PTR [rbp-0x10],0x2a
 8000c09:	00 
 8000c0a:	48 c7 45 f8 2a 00 00 	mov    QWORD PTR [rbp-0x8],0x2a
 8000c11:	00 
 8000c12:	48 83 ec 20          	sub    rsp,0x20
 8000c16:	48 89 e1             	mov    rcx,rsp
 8000c19:	48 8b 45 f8          	mov    rax,QWORD PTR [rbp-0x8]
 8000c1d:	48 89 41 10          	mov    QWORD PTR [rcx+0x10],rax
 8000c21:	48 8b 45 f0          	mov    rax,QWORD PTR [rbp-0x10]
 8000c25:	48 89 41 08          	mov    QWORD PTR [rcx+0x8],rax
 8000c29:	48 8b 45 e8          	mov    rax,QWORD PTR [rbp-0x18]
 8000c2d:	48 89 01             	mov    QWORD PTR [rcx],rax
 8000c30:	bf 00 00 00 00       	mov    edi,0x0
 8000c35:	e8 85 4c 01 00       	call   80158bf <rt.abort_fixed>
 8000c3a:	48 83 ec e0          	sub    rsp,0xffffffffffffffe0
 8000c3e:	45 88 2e             	mov    BYTE PTR [r14],r13b
 8000c41:	48 83 c3 01          	add    rbx,0x1
 8000c45:	49 83 ec 01          	sub    r12,0x1
 8000c49:	e9 73 fe ff ff       	jmp    8000ac1 <bytes.reverse+0x2b>
 8000c4e:	41 5f                	pop    r15
 8000c50:	41 5e                	pop    r14
 8000c52:	41 5d                	pop    r13
 8000c54:	41 5c                	pop    r12
 8000c56:	5b                   	pop    rbx
 8000c57:	c9                   	leave  
 8000c58:	c3                   	ret    

0000000008000c59 <bytes.tokenize>:
 8000c59:	55                   	push   rbp
 8000c5a:	48 89 e5             	mov    rbp,rsp
 8000c5d:	48 83 ec 58          	sub    rsp,0x58
 8000c61:	53                   	push   rbx
 8000c62:	48 89 f8             	mov    rax,rdi
 8000c65:	48 8b 4d 30          	mov    rcx,QWORD PTR [rbp+0x30]
 8000c69:	48 83 f9 00          	cmp    rcx,0x0
 8000c6d:	77 48                	ja     8000cb7 <bytes.tokenize+0x5e>
 8000c6f:	48 8d 0d 42 f9 ff 77 	lea    rcx,[rip+0x77fff942]        # 800005b8 <strdata.510>
 8000c76:	48 89 4d b0          	mov    QWORD PTR [rbp-0x50],rcx
 8000c7a:	48 c7 45 b8 55 00 00 	mov    QWORD PTR [rbp-0x48],0x55
 8000c81:	00 
 8000c82:	48 c7 45 c0 55 00 00 	mov    QWORD PTR [rbp-0x40],0x55
 8000c89:	00 
 8000c8a:	48 83 ec 20          	sub    rsp,0x20
 8000c8e:	48 89 e1             	mov    rcx,rsp
 8000c91:	48 8b 55 c0          	mov    rdx,QWORD PTR [rbp-0x40]
 8000c95:	48 89 51 10          	mov    QWORD PTR [rcx+0x10],rdx
 8000c99:	48 8b 55 b8          	mov    rdx,QWORD PTR [rbp-0x48]
 8000c9d:	48 89 51 08          	mov    QWORD PTR [rcx+0x8],rdx
 8000ca1:	48 89 c3             	mov    rbx,rax
 8000ca4:	48 8b 45 b0          	mov    rax,QWORD PTR [rbp-0x50]
 8000ca8:	48 89 01             	mov    QWORD PTR [rcx],rax
 8000cab:	e8 e2 4b 01 00       	call   8015892 <rt.abort>
 8000cb0:	48 89 d8             	mov    rax,rbx
 8000cb3:	48 83 ec e0          	sub    rsp,0xffffffffffffffe0
 8000cb7:	48 8b 4d 18          	mov    rcx,QWORD PTR [rbp+0x18]
 8000cbb:	48 83 f9 00          	cmp    rcx,0x0
 8000cbf:	75 18                	jne    8000cd9 <bytes.tokenize+0x80>
 8000cc1:	48 c7 45 28 00 00 00 	mov    QWORD PTR [rbp+0x28],0x0
 8000cc8:	00 
 8000cc9:	48 c7 45 30 00 00 00 	mov    QWORD PTR [rbp+0x30],0x0
 8000cd0:	00 
 8000cd1:	48 c7 45 38 00 00 00 	mov    QWORD PTR [rbp+0x38],0x0
 8000cd8:	00 
 8000cd9:	48 8b 4d 10          	mov    rcx,QWORD PTR [rbp+0x10]
 8000cdd:	48 89 4d c8          	mov    QWORD PTR [rbp-0x38],rcx
 8000ce1:	48 8b 4d 18          	mov    rcx,QWORD PTR [rbp+0x18]
 8000ce5:	48 89 4d d0          	mov    QWORD PTR [rbp-0x30],rcx
 8000ce9:	48 8b 4d 20          	mov    rcx,QWORD PTR [rbp+0x20]
 8000ced:	48 89 4d d8          	mov    QWORD PTR [rbp-0x28],rcx
 8000cf1:	48 8b 4d 28          	mov    rcx,QWORD PTR [rbp+0x28]
 8000cf5:	48 89 4d e0          	mov    QWORD PTR [rbp-0x20],rcx
 8000cf9:	48 8b 4d 30          	mov    rcx,QWORD PTR [rbp+0x30]
 8000cfd:	48 89 4d e8          	mov    QWORD PTR [rbp-0x18],rcx
 8000d01:	48 8b 4d 38          	mov    rcx,QWORD PTR [rbp+0x38]
 8000d05:	48 89 4d f0          	mov    QWORD PTR [rbp-0x10],rcx
 8000d09:	48 c7 45 f8 ff ff ff 	mov    QWORD PTR [rbp-0x8],0xffffffffffffffff
 8000d10:	ff 
 8000d11:	48 8b 4d f8          	mov    rcx,QWORD PTR [rbp-0x8]
 8000d15:	48 89 48 30          	mov    QWORD PTR [rax+0x30],rcx
 8000d19:	48 8b 4d f0          	mov    rcx,QWORD PTR [rbp-0x10]
 8000d1d:	48 89 48 28          	mov    QWORD PTR [rax+0x28],rcx
 8000d21:	48 8b 4d e8          	mov    rcx,QWORD PTR [rbp-0x18]
 8000d25:	48 89 48 20          	mov    QWORD PTR [rax+0x20],rcx
 8000d29:	48 8b 4d e0          	mov    rcx,QWORD PTR [rbp-0x20]
 8000d2d:	48 89 48 18          	mov    QWORD PTR [rax+0x18],rcx
 8000d31:	48 8b 4d d8          	mov    rcx,QWORD PTR [rbp-0x28]
 8000d35:	48 89 48 10          	mov    QWORD PTR [rax+0x10],rcx
 8000d39:	48 8b 4d d0          	mov    rcx,QWORD PTR [rbp-0x30]
 8000d3d:	48 89 48 08          	mov    QWORD PTR [rax+0x8],rcx
 8000d41:	48 8b 4d c8          	mov    rcx,QWORD PTR [rbp-0x38]
 8000d45:	48 89 08             	mov    QWORD PTR [rax],rcx
 8000d48:	5b                   	pop    rbx
 8000d49:	c9                   	leave  
 8000d4a:	c3                   	ret    

0000000008000d4b <bytes.next_token>:
 8000d4b:	55                   	push   rbp
 8000d4c:	48 89 e5             	mov    rbp,rsp
 8000d4f:	48 81 ec 08 01 00 00 	sub    rsp,0x108
 8000d56:	53                   	push   rbx
 8000d57:	41 54                	push   r12
 8000d59:	41 55                	push   r13
 8000d5b:	41 56                	push   r14
 8000d5d:	41 57                	push   r15
 8000d5f:	48 89 fb             	mov    rbx,rdi
 8000d62:	c7 85 20 ff ff ff c6 	mov    DWORD PTR [rbp-0xe0],0x97a0b8c6
 8000d69:	b8 a0 97 
 8000d6c:	49 89 f4             	mov    r12,rsi
 8000d6f:	48 8d bd 00 ff ff ff 	lea    rdi,[rbp-0x100]
 8000d76:	e8 d9 02 00 00       	call   8001054 <bytes.peek_token>
 8000d7b:	4c 89 e6             	mov    rsi,r12
 8000d7e:	48 89 c1             	mov    rcx,rax
 8000d81:	48 89 d8             	mov    rax,rbx
 8000d84:	8b 11                	mov    edx,DWORD PTR [rcx]
 8000d86:	81 fa 4e 4e f7 44    	cmp    edx,0x44f74e4e
 8000d8c:	74 30                	je     8000dbe <bytes.next_token+0x73>
 8000d8e:	48 8b 8d 38 ff ff ff 	mov    rcx,QWORD PTR [rbp-0xc8]
 8000d95:	48 89 48 18          	mov    QWORD PTR [rax+0x18],rcx
 8000d99:	48 8b 8d 30 ff ff ff 	mov    rcx,QWORD PTR [rbp-0xd0]
 8000da0:	48 89 48 10          	mov    QWORD PTR [rax+0x10],rcx
 8000da4:	48 8b 8d 28 ff ff ff 	mov    rcx,QWORD PTR [rbp-0xd8]
 8000dab:	48 89 48 08          	mov    QWORD PTR [rax+0x8],rcx
 8000daf:	48 8b 8d 20 ff ff ff 	mov    rcx,QWORD PTR [rbp-0xe0]
 8000db6:	48 89 08             	mov    QWORD PTR [rax],rcx
 8000db9:	e9 8b 02 00 00       	jmp    8001049 <bytes.next_token+0x2fe>
 8000dbe:	4c 8b 69 08          	mov    r13,QWORD PTR [rcx+0x8]
 8000dc2:	4c 89 ad 40 ff ff ff 	mov    QWORD PTR [rbp-0xc0],r13
 8000dc9:	4c 8b 61 10          	mov    r12,QWORD PTR [rcx+0x10]
 8000dcd:	4c 89 a5 48 ff ff ff 	mov    QWORD PTR [rbp-0xb8],r12
 8000dd4:	48 8b 59 18          	mov    rbx,QWORD PTR [rcx+0x18]
 8000dd8:	48 89 5d e8          	mov    QWORD PTR [rbp-0x18],rbx
 8000ddc:	48 89 9d 50 ff ff ff 	mov    QWORD PTR [rbp-0xb0],rbx
 8000de3:	48 8b 4e 30          	mov    rcx,QWORD PTR [rsi+0x30]
 8000de7:	4c 8b 76 08          	mov    r14,QWORD PTR [rsi+0x8]
 8000deb:	4c 39 f1             	cmp    rcx,r14
 8000dee:	0f 84 b2 00 00 00    	je     8000ea6 <bytes.next_token+0x15b>
 8000df4:	48 8b 16             	mov    rdx,QWORD PTR [rsi]
 8000df7:	48 89 55 f8          	mov    QWORD PTR [rbp-0x8],rdx
 8000dfb:	48 8b 7e 20          	mov    rdi,QWORD PTR [rsi+0x20]
 8000dff:	48 01 f9             	add    rcx,rdi
 8000e02:	48 89 4d f0          	mov    QWORD PTR [rbp-0x10],rcx
 8000e06:	4c 39 f1             	cmp    rcx,r14
 8000e09:	49 89 f7             	mov    r15,rsi
 8000e0c:	40 0f 96 c6          	setbe  sil
 8000e10:	40 0f b6 f6          	movzx  esi,sil
 8000e14:	4d 39 f6             	cmp    r14,r14
 8000e17:	40 0f 96 c7          	setbe  dil
 8000e1b:	40 0f b6 ff          	movzx  edi,dil
 8000e1f:	85 f7                	test   edi,esi
 8000e21:	75 5e                	jne    8000e81 <bytes.next_token+0x136>
 8000e23:	48 8d 0d 46 f8 ff 77 	lea    rcx,[rip+0x77fff846]        # 80000670 <strdata.626>
 8000e2a:	48 89 4d 88          	mov    QWORD PTR [rbp-0x78],rcx
 8000e2e:	48 c7 45 90 2b 00 00 	mov    QWORD PTR [rbp-0x70],0x2b
 8000e35:	00 
 8000e36:	48 c7 45 98 2b 00 00 	mov    QWORD PTR [rbp-0x68],0x2b
 8000e3d:	00 
 8000e3e:	48 83 ec 20          	sub    rsp,0x20
 8000e42:	48 89 e1             	mov    rcx,rsp
 8000e45:	48 8b 55 98          	mov    rdx,QWORD PTR [rbp-0x68]
 8000e49:	48 89 51 10          	mov    QWORD PTR [rcx+0x10],rdx
 8000e4d:	48 8b 55 90          	mov    rdx,QWORD PTR [rbp-0x70]
 8000e51:	48 89 51 08          	mov    QWORD PTR [rcx+0x8],rdx
 8000e55:	48 89 c3             	mov    rbx,rax
 8000e58:	48 8b 45 88          	mov    rax,QWORD PTR [rbp-0x78]
 8000e5c:	48 89 01             	mov    QWORD PTR [rcx],rax
 8000e5f:	bf 00 00 00 00       	mov    edi,0x0
 8000e64:	e8 56 4a 01 00       	call   80158bf <rt.abort_fixed>
 8000e69:	4c 89 fe             	mov    rsi,r15
 8000e6c:	48 89 d8             	mov    rax,rbx
 8000e6f:	48 8b 4d f0          	mov    rcx,QWORD PTR [rbp-0x10]
 8000e73:	48 8b 55 f8          	mov    rdx,QWORD PTR [rbp-0x8]
 8000e77:	48 8b 5d e8          	mov    rbx,QWORD PTR [rbp-0x18]
 8000e7b:	48 83 ec e0          	sub    rsp,0xffffffffffffffe0
 8000e7f:	eb 03                	jmp    8000e84 <bytes.next_token+0x139>
 8000e81:	4c 89 fe             	mov    rsi,r15
 8000e84:	48 89 d7             	mov    rdi,rdx
 8000e87:	48 01 cf             	add    rdi,rcx
 8000e8a:	4c 89 f2             	mov    rdx,r14
 8000e8d:	48 29 ca             	sub    rdx,rcx
 8000e90:	48 f7 d9             	neg    rcx
 8000e93:	4c 01 f1             	add    rcx,r14
 8000e96:	48 89 3e             	mov    QWORD PTR [rsi],rdi
 8000e99:	48 89 56 08          	mov    QWORD PTR [rsi+0x8],rdx
 8000e9d:	48 89 4e 10          	mov    QWORD PTR [rsi+0x10],rcx
 8000ea1:	e9 69 01 00 00       	jmp    800100f <bytes.next_token+0x2c4>
 8000ea6:	48 89 f2             	mov    rdx,rsi
 8000ea9:	48 83 c2 18          	add    rdx,0x18
 8000ead:	48 89 55 d0          	mov    QWORD PTR [rbp-0x30],rdx
 8000eb1:	48 8b 7e 18          	mov    rdi,QWORD PTR [rsi+0x18]
 8000eb5:	48 89 7d e0          	mov    QWORD PTR [rbp-0x20],rdi
 8000eb9:	48 8b 4e 20          	mov    rcx,QWORD PTR [rsi+0x20]
 8000ebd:	48 89 4d d8          	mov    QWORD PTR [rbp-0x28],rcx
 8000ec1:	48 83 f9 00          	cmp    rcx,0x0
 8000ec5:	49 89 f7             	mov    r15,rsi
 8000ec8:	40 0f 93 c6          	setae  sil
 8000ecc:	40 0f b6 f6          	movzx  esi,sil
 8000ed0:	48 83 f9 00          	cmp    rcx,0x0
 8000ed4:	41 0f 93 c0          	setae  r8b
 8000ed8:	45 0f b6 c0          	movzx  r8d,r8b
 8000edc:	41 85 f0             	test   r8d,esi
 8000edf:	75 70                	jne    8000f51 <bytes.next_token+0x206>
 8000ee1:	48 8d 0d 28 f7 ff 77 	lea    rcx,[rip+0x77fff728]        # 80000610 <strdata.580>
 8000ee8:	48 89 8d 58 ff ff ff 	mov    QWORD PTR [rbp-0xa8],rcx
 8000eef:	48 c7 85 60 ff ff ff 	mov    QWORD PTR [rbp-0xa0],0x2b
 8000ef6:	2b 00 00 00 
 8000efa:	48 c7 85 68 ff ff ff 	mov    QWORD PTR [rbp-0x98],0x2b
 8000f01:	2b 00 00 00 
 8000f05:	48 83 ec 20          	sub    rsp,0x20
 8000f09:	48 89 e1             	mov    rcx,rsp
 8000f0c:	48 8b 95 68 ff ff ff 	mov    rdx,QWORD PTR [rbp-0x98]
 8000f13:	48 89 51 10          	mov    QWORD PTR [rcx+0x10],rdx
 8000f17:	48 8b 95 60 ff ff ff 	mov    rdx,QWORD PTR [rbp-0xa0]
 8000f1e:	48 89 51 08          	mov    QWORD PTR [rcx+0x8],rdx
 8000f22:	49 89 c6             	mov    r14,rax
 8000f25:	48 8b 85 58 ff ff ff 	mov    rax,QWORD PTR [rbp-0xa8]
 8000f2c:	48 89 01             	mov    QWORD PTR [rcx],rax
 8000f2f:	bf 00 00 00 00       	mov    edi,0x0
 8000f34:	e8 86 49 01 00       	call   80158bf <rt.abort_fixed>
 8000f39:	4c 89 fe             	mov    rsi,r15
 8000f3c:	4c 89 f0             	mov    rax,r14
 8000f3f:	48 8b 4d d8          	mov    rcx,QWORD PTR [rbp-0x28]
 8000f43:	48 8b 7d e0          	mov    rdi,QWORD PTR [rbp-0x20]
 8000f47:	48 8b 55 d0          	mov    rdx,QWORD PTR [rbp-0x30]
 8000f4b:	48 83 ec e0          	sub    rsp,0xffffffffffffffe0
 8000f4f:	eb 03                	jmp    8000f54 <bytes.next_token+0x209>
 8000f51:	4c 89 fe             	mov    rsi,r15
 8000f54:	48 89 5d c0          	mov    QWORD PTR [rbp-0x40],rbx
 8000f58:	48 83 c7 00          	add    rdi,0x0
 8000f5c:	48 89 3a             	mov    QWORD PTR [rdx],rdi
 8000f5f:	48 c7 42 08 00 00 00 	mov    QWORD PTR [rdx+0x8],0x0
 8000f66:	00 
 8000f67:	48 89 4a 10          	mov    QWORD PTR [rdx+0x10],rcx
 8000f6b:	48 8b 0e             	mov    rcx,QWORD PTR [rsi]
 8000f6e:	48 89 4d c8          	mov    QWORD PTR [rbp-0x38],rcx
 8000f72:	4c 8b 76 08          	mov    r14,QWORD PTR [rsi+0x8]
 8000f76:	49 83 fe 00          	cmp    r14,0x0
 8000f7a:	0f 93 c2             	setae  dl
 8000f7d:	0f b6 d2             	movzx  edx,dl
 8000f80:	49 83 fe 00          	cmp    r14,0x0
 8000f84:	49 89 f7             	mov    r15,rsi
 8000f87:	40 0f 93 c6          	setae  sil
 8000f8b:	40 0f b6 f6          	movzx  esi,sil
 8000f8f:	85 d6                	test   esi,edx
 8000f91:	75 66                	jne    8000ff9 <bytes.next_token+0x2ae>
 8000f93:	48 8d 0d a6 f6 ff 77 	lea    rcx,[rip+0x77fff6a6]        # 80000640 <strdata.599>
 8000f9a:	48 89 8d 70 ff ff ff 	mov    QWORD PTR [rbp-0x90],rcx
 8000fa1:	48 c7 85 78 ff ff ff 	mov    QWORD PTR [rbp-0x88],0x2b
 8000fa8:	2b 00 00 00 
 8000fac:	48 c7 45 80 2b 00 00 	mov    QWORD PTR [rbp-0x80],0x2b
 8000fb3:	00 
 8000fb4:	48 83 ec 20          	sub    rsp,0x20
 8000fb8:	48 89 e1             	mov    rcx,rsp
 8000fbb:	48 8b 55 80          	mov    rdx,QWORD PTR [rbp-0x80]
 8000fbf:	48 89 51 10          	mov    QWORD PTR [rcx+0x10],rdx
 8000fc3:	48 8b 95 78 ff ff ff 	mov    rdx,QWORD PTR [rbp-0x88]
 8000fca:	48 89 51 08          	mov    QWORD PTR [rcx+0x8],rdx
 8000fce:	48 89 c3             	mov    rbx,rax
 8000fd1:	48 8b 85 70 ff ff ff 	mov    rax,QWORD PTR [rbp-0x90]
 8000fd8:	48 89 01             	mov    QWORD PTR [rcx],rax
 8000fdb:	bf 00 00 00 00       	mov    edi,0x0
 8000fe0:	e8 da 48 01 00       	call   80158bf <rt.abort_fixed>
 8000fe5:	4c 89 fe             	mov    rsi,r15
 8000fe8:	48 89 d8             	mov    rax,rbx
 8000feb:	48 8b 5d c0          	mov    rbx,QWORD PTR [rbp-0x40]
 8000fef:	48 8b 4d c8          	mov    rcx,QWORD PTR [rbp-0x38]
 8000ff3:	48 83 ec e0          	sub    rsp,0xffffffffffffffe0
 8000ff7:	eb 03                	jmp    8000ffc <bytes.next_token+0x2b1>
 8000ff9:	4c 89 fe             	mov    rsi,r15
 8000ffc:	48 83 c1 00          	add    rcx,0x0
 8001000:	48 89 0e             	mov    QWORD PTR [rsi],rcx
 8001003:	48 c7 46 08 00 00 00 	mov    QWORD PTR [rsi+0x8],0x0
 800100a:	00 
 800100b:	4c 89 76 10          	mov    QWORD PTR [rsi+0x10],r14
 800100f:	48 c7 46 30 ff ff ff 	mov    QWORD PTR [rsi+0x30],0xffffffffffffffff
 8001016:	ff 
 8001017:	c7 45 a0 4e 4e f7 44 	mov    DWORD PTR [rbp-0x60],0x44f74e4e
 800101e:	4c 89 6d a8          	mov    QWORD PTR [rbp-0x58],r13
 8001022:	4c 89 65 b0          	mov    QWORD PTR [rbp-0x50],r12
 8001026:	48 89 5d b8          	mov    QWORD PTR [rbp-0x48],rbx
 800102a:	48 8b 4d b8          	mov    rcx,QWORD PTR [rbp-0x48]
 800102e:	48 89 48 18          	mov    QWORD PTR [rax+0x18],rcx
 8001032:	48 8b 4d b0          	mov    rcx,QWORD PTR [rbp-0x50]
 8001036:	48 89 48 10          	mov    QWORD PTR [rax+0x10],rcx
 800103a:	48 8b 4d a8          	mov    rcx,QWORD PTR [rbp-0x58]
 800103e:	48 89 48 08          	mov    QWORD PTR [rax+0x8],rcx
 8001042:	48 8b 4d a0          	mov    rcx,QWORD PTR [rbp-0x60]
 8001046:	48 89 08             	mov    QWORD PTR [rax],rcx
 8001049:	41 5f                	pop    r15
 800104b:	41 5e                	pop    r14
 800104d:	41 5d                	pop    r13
 800104f:	41 5c                	pop    r12
 8001051:	5b                   	pop    rbx
 8001052:	c9                   	leave  
 8001053:	c3                   	ret    

0000000008001054 <bytes.peek_token>:
 8001054:	55                   	push   rbp
 8001055:	48 89 e5             	mov    rbp,rsp
 8001058:	48 81 ec a8 00 00 00 	sub    rsp,0xa8
 800105f:	53                   	push   rbx
 8001060:	41 54                	push   r12
 8001062:	41 55                	push   r13
 8001064:	41 56                	push   r14
 8001066:	41 57                	push   r15
 8001068:	49 89 f4             	mov    r12,rsi
 800106b:	48 89 f8             	mov    rax,rdi
 800106e:	49 8b 4c 24 20       	mov    rcx,QWORD PTR [r12+0x20]
 8001073:	48 83 f9 00          	cmp    rcx,0x0
 8001077:	0f 84 db 01 00 00    	je     8001258 <bytes.peek_token+0x204>
 800107d:	49 8b 54 24 30       	mov    rdx,QWORD PTR [r12+0x30]
 8001082:	49 8b 4c 24 08       	mov    rcx,QWORD PTR [r12+0x8]
 8001087:	48 39 ca             	cmp    rdx,rcx
 800108a:	77 08                	ja     8001094 <bytes.peek_token+0x40>
 800108c:	4c 89 e6             	mov    rsi,r12
 800108f:	e9 0d 01 00 00       	jmp    80011a1 <bytes.peek_token+0x14d>
 8001094:	4c 89 e3             	mov    rbx,r12
 8001097:	48 83 c3 30          	add    rbx,0x30
 800109b:	c7 45 90 4e 4e f7 44 	mov    DWORD PTR [rbp-0x70],0x44f74e4e
 80010a2:	49 8b 4c 24 18       	mov    rcx,QWORD PTR [r12+0x18]
 80010a7:	48 89 4d 98          	mov    QWORD PTR [rbp-0x68],rcx
 80010ab:	49 8b 4c 24 20       	mov    rcx,QWORD PTR [r12+0x20]
 80010b0:	48 89 4d a0          	mov    QWORD PTR [rbp-0x60],rcx
 80010b4:	49 8b 4c 24 28       	mov    rcx,QWORD PTR [r12+0x28]
 80010b9:	48 89 4d a8          	mov    QWORD PTR [rbp-0x58],rcx
 80010bd:	48 83 ec 40          	sub    rsp,0x40
 80010c1:	48 89 e1             	mov    rcx,rsp
 80010c4:	48 8b 55 a8          	mov    rdx,QWORD PTR [rbp-0x58]
 80010c8:	48 89 51 30          	mov    QWORD PTR [rcx+0x30],rdx
 80010cc:	48 8b 55 a0          	mov    rdx,QWORD PTR [rbp-0x60]
 80010d0:	48 89 51 28          	mov    QWORD PTR [rcx+0x28],rdx
 80010d4:	48 8b 55 98          	mov    rdx,QWORD PTR [rbp-0x68]
 80010d8:	48 89 51 20          	mov    QWORD PTR [rcx+0x20],rdx
 80010dc:	48 8b 55 90          	mov    rdx,QWORD PTR [rbp-0x70]
 80010e0:	48 89 51 18          	mov    QWORD PTR [rcx+0x18],rdx
 80010e4:	49 8b 54 24 10       	mov    rdx,QWORD PTR [r12+0x10]
 80010e9:	48 89 51 10          	mov    QWORD PTR [rcx+0x10],rdx
 80010ed:	49 8b 54 24 08       	mov    rdx,QWORD PTR [r12+0x8]
 80010f2:	48 89 51 08          	mov    QWORD PTR [rcx+0x8],rdx
 80010f6:	49 89 c5             	mov    r13,rax
 80010f9:	49 8b 04 24          	mov    rax,QWORD PTR [r12]
 80010fd:	48 89 01             	mov    QWORD PTR [rcx],rax
 8001100:	e8 6a f3 ff ff       	call   800046f <bytes.index>
 8001105:	48 89 d1             	mov    rcx,rdx
 8001108:	48 89 c2             	mov    rdx,rax
 800110b:	4c 89 e8             	mov    rax,r13
 800110e:	48 89 95 60 ff ff ff 	mov    QWORD PTR [rbp-0xa0],rdx
 8001115:	48 89 8d 68 ff ff ff 	mov    QWORD PTR [rbp-0x98],rcx
 800111c:	48 83 ec c0          	sub    rsp,0xffffffffffffffc0
 8001120:	8b 8d 60 ff ff ff    	mov    ecx,DWORD PTR [rbp-0xa0]
 8001126:	81 f9 7e e5 8c 67    	cmp    ecx,0x678ce57e
 800112c:	74 66                	je     8001194 <bytes.peek_token+0x140>
 800112e:	81 f9 c6 b8 a0 97    	cmp    ecx,0x97a0b8c6
 8001134:	74 52                	je     8001188 <bytes.peek_token+0x134>
 8001136:	48 8d 0d 63 f5 ff 77 	lea    rcx,[rip+0x77fff563]        # 800006a0 <strdata.706>
 800113d:	48 89 4d b0          	mov    QWORD PTR [rbp-0x50],rcx
 8001141:	48 c7 45 b8 2b 00 00 	mov    QWORD PTR [rbp-0x48],0x2b
 8001148:	00 
 8001149:	48 c7 45 c0 2b 00 00 	mov    QWORD PTR [rbp-0x40],0x2b
 8001150:	00 
 8001151:	48 83 ec 20          	sub    rsp,0x20
 8001155:	48 89 e1             	mov    rcx,rsp
 8001158:	48 8b 55 c0          	mov    rdx,QWORD PTR [rbp-0x40]
 800115c:	48 89 51 10          	mov    QWORD PTR [rcx+0x10],rdx
 8001160:	48 8b 55 b8          	mov    rdx,QWORD PTR [rbp-0x48]
 8001164:	48 89 51 08          	mov    QWORD PTR [rcx+0x8],rdx
 8001168:	48 89 c3             	mov    rbx,rax
 800116b:	48 8b 45 b0          	mov    rax,QWORD PTR [rbp-0x50]
 800116f:	48 89 01             	mov    QWORD PTR [rcx],rax
 8001172:	bf 04 00 00 00       	mov    edi,0x4
 8001177:	e8 43 47 01 00       	call   80158bf <rt.abort_fixed>
 800117c:	4c 89 e6             	mov    rsi,r12
 800117f:	48 89 d8             	mov    rax,rbx
 8001182:	48 83 ec e0          	sub    rsp,0xffffffffffffffe0
 8001186:	eb 19                	jmp    80011a1 <bytes.peek_token+0x14d>
 8001188:	4c 89 e6             	mov    rsi,r12
 800118b:	48 8b 4e 08          	mov    rcx,QWORD PTR [rsi+0x8]
 800118f:	48 89 0b             	mov    QWORD PTR [rbx],rcx
 8001192:	eb 0d                	jmp    80011a1 <bytes.peek_token+0x14d>
 8001194:	4c 89 e6             	mov    rsi,r12
 8001197:	48 8b 8d 68 ff ff ff 	mov    rcx,QWORD PTR [rbp-0x98]
 800119e:	48 89 0b             	mov    QWORD PTR [rbx],rcx
 80011a1:	c7 45 c8 4e 4e f7 44 	mov    DWORD PTR [rbp-0x38],0x44f74e4e
 80011a8:	48 8d 4d c8          	lea    rcx,[rbp-0x38]
 80011ac:	49 89 cc             	mov    r12,rcx
 80011af:	49 83 c4 08          	add    r12,0x8
 80011b3:	4c 8b 36             	mov    r14,QWORD PTR [rsi]
 80011b6:	48 8b 5e 08          	mov    rbx,QWORD PTR [rsi+0x8]
 80011ba:	4c 8b 6e 30          	mov    r13,QWORD PTR [rsi+0x30]
 80011be:	48 83 fb 00          	cmp    rbx,0x0
 80011c2:	0f 93 c1             	setae  cl
 80011c5:	0f b6 c9             	movzx  ecx,cl
 80011c8:	49 39 dd             	cmp    r13,rbx
 80011cb:	0f 96 c2             	setbe  dl
 80011ce:	0f b6 d2             	movzx  edx,dl
 80011d1:	85 ca                	test   edx,ecx
 80011d3:	75 4d                	jne    8001222 <bytes.peek_token+0x1ce>
 80011d5:	48 8d 0d f4 f4 ff 77 	lea    rcx,[rip+0x77fff4f4]        # 800006d0 <strdata.724>
 80011dc:	48 89 4d e8          	mov    QWORD PTR [rbp-0x18],rcx
 80011e0:	48 c7 45 f0 2b 00 00 	mov    QWORD PTR [rbp-0x10],0x2b
 80011e7:	00 
 80011e8:	48 c7 45 f8 2b 00 00 	mov    QWORD PTR [rbp-0x8],0x2b
 80011ef:	00 
 80011f0:	48 83 ec 20          	sub    rsp,0x20
 80011f4:	48 89 e1             	mov    rcx,rsp
 80011f7:	48 8b 55 f8          	mov    rdx,QWORD PTR [rbp-0x8]
 80011fb:	48 89 51 10          	mov    QWORD PTR [rcx+0x10],rdx
 80011ff:	48 8b 55 f0          	mov    rdx,QWORD PTR [rbp-0x10]
 8001203:	48 89 51 08          	mov    QWORD PTR [rcx+0x8],rdx
 8001207:	49 89 c7             	mov    r15,rax
 800120a:	48 8b 45 e8          	mov    rax,QWORD PTR [rbp-0x18]
 800120e:	48 89 01             	mov    QWORD PTR [rcx],rax
 8001211:	bf 00 00 00 00       	mov    edi,0x0
 8001216:	e8 a4 46 01 00       	call   80158bf <rt.abort_fixed>
 800121b:	4c 89 f8             	mov    rax,r15
 800121e:	48 83 ec e0          	sub    rsp,0xffffffffffffffe0
 8001222:	4c 89 f1             	mov    rcx,r14
 8001225:	48 83 c1 00          	add    rcx,0x0
 8001229:	49 89 0c 24          	mov    QWORD PTR [r12],rcx
 800122d:	4d 89 6c 24 08       	mov    QWORD PTR [r12+0x8],r13
 8001232:	49 89 5c 24 10       	mov    QWORD PTR [r12+0x10],rbx
 8001237:	48 8b 4d e0          	mov    rcx,QWORD PTR [rbp-0x20]
 800123b:	48 89 48 18          	mov    QWORD PTR [rax+0x18],rcx
 800123f:	48 8b 4d d8          	mov    rcx,QWORD PTR [rbp-0x28]
 8001243:	48 89 48 10          	mov    QWORD PTR [rax+0x10],rcx
 8001247:	48 8b 4d d0          	mov    rcx,QWORD PTR [rbp-0x30]
 800124b:	48 89 48 08          	mov    QWORD PTR [rax+0x8],rcx
 800124f:	48 8b 4d c8          	mov    rcx,QWORD PTR [rbp-0x38]
 8001253:	48 89 08             	mov    QWORD PTR [rax],rcx
 8001256:	eb 2f                	jmp    8001287 <bytes.peek_token+0x233>
 8001258:	c7 85 70 ff ff ff c6 	mov    DWORD PTR [rbp-0x90],0x97a0b8c6
 800125f:	b8 a0 97 
 8001262:	48 8b 4d 88          	mov    rcx,QWORD PTR [rbp-0x78]
 8001266:	48 89 48 18          	mov    QWORD PTR [rax+0x18],rcx
 800126a:	48 8b 4d 80          	mov    rcx,QWORD PTR [rbp-0x80]
 800126e:	48 89 48 10          	mov    QWORD PTR [rax+0x10],rcx
 8001272:	48 8b 8d 78 ff ff ff 	mov    rcx,QWORD PTR [rbp-0x88]
 8001279:	48 89 48 08          	mov    QWORD PTR [rax+0x8],rcx
 800127d:	48 8b 8d 70 ff ff ff 	mov    rcx,QWORD PTR [rbp-0x90]
 8001284:	48 89 08             	mov    QWORD PTR [rax],rcx
 8001287:	41 5f                	pop    r15
 8001289:	41 5e                	pop    r14
 800128b:	41 5d                	pop    r13
 800128d:	41 5c                	pop    r12
 800128f:	5b                   	pop    rbx
 8001290:	c9                   	leave  
 8001291:	c3                   	ret    

0000000008001292 <bytes.rtrim>:
 8001292:	55                   	push   rbp
 8001293:	48 89 e5             	mov    rbp,rsp
 8001296:	48 83 ec 70          	sub    rsp,0x70
 800129a:	53                   	push   rbx
 800129b:	41 54                	push   r12
 800129d:	41 55                	push   r13
 800129f:	41 56                	push   r14
 80012a1:	48 89 f8             	mov    rax,rdi
 80012a4:	48 8b 4d 18          	mov    rcx,QWORD PTR [rbp+0x18]
 80012a8:	49 89 cc             	mov    r12,rcx
 80012ab:	49 83 ec 01          	sub    r12,0x1
 80012af:	48 89 c7             	mov    rdi,rax
 80012b2:	4c 89 e3             	mov    rbx,r12
 80012b5:	48 8b 45 18          	mov    rax,QWORD PTR [rbp+0x18]
 80012b9:	48 39 c3             	cmp    rbx,rax
 80012bc:	0f 92 c0             	setb   al
 80012bf:	0f b6 c0             	movzx  eax,al
 80012c2:	0f 83 c6 00 00 00    	jae    800138e <bytes.rtrim+0xfc>
 80012c8:	c7 45 98 5d 3e 9e 71 	mov    DWORD PTR [rbp-0x68],0x719e3e5d
 80012cf:	48 8d 45 98          	lea    rax,[rbp-0x68]
 80012d3:	49 89 c5             	mov    r13,rax
 80012d6:	49 83 c5 08          	add    r13,0x8
 80012da:	48 8b 4d 10          	mov    rcx,QWORD PTR [rbp+0x10]
 80012de:	48 8b 45 18          	mov    rax,QWORD PTR [rbp+0x18]
 80012e2:	49 89 ce             	mov    r14,rcx
 80012e5:	49 01 de             	add    r14,rbx
 80012e8:	48 39 c3             	cmp    rbx,rax
 80012eb:	72 4c                	jb     8001339 <bytes.rtrim+0xa7>
 80012ed:	48 8d 05 0c f4 ff 77 	lea    rax,[rip+0x77fff40c]        # 80000700 <strdata.907>
 80012f4:	48 89 45 b8          	mov    QWORD PTR [rbp-0x48],rax
 80012f8:	48 c7 45 c0 27 00 00 	mov    QWORD PTR [rbp-0x40],0x27
 80012ff:	00 
 8001300:	48 c7 45 c8 27 00 00 	mov    QWORD PTR [rbp-0x38],0x27
 8001307:	00 
 8001308:	48 83 ec 20          	sub    rsp,0x20
 800130c:	48 89 e1             	mov    rcx,rsp
 800130f:	48 8b 45 c8          	mov    rax,QWORD PTR [rbp-0x38]
 8001313:	48 89 41 10          	mov    QWORD PTR [rcx+0x10],rax
 8001317:	48 8b 45 c0          	mov    rax,QWORD PTR [rbp-0x40]
 800131b:	48 89 41 08          	mov    QWORD PTR [rcx+0x8],rax
 800131f:	48 8b 45 b8          	mov    rax,QWORD PTR [rbp-0x48]
 8001323:	48 89 01             	mov    QWORD PTR [rcx],rax
 8001326:	49 89 fc             	mov    r12,rdi
 8001329:	bf 00 00 00 00       	mov    edi,0x0
 800132e:	e8 8c 45 01 00       	call   80158bf <rt.abort_fixed>
 8001333:	48 83 ec e0          	sub    rsp,0xffffffffffffffe0
 8001337:	eb 03                	jmp    800133c <bytes.rtrim+0xaa>
 8001339:	49 89 fc             	mov    r12,rdi
 800133c:	41 0f b6 06          	movzx  eax,BYTE PTR [r14]
 8001340:	41 88 45 00          	mov    BYTE PTR [r13+0x0],al
 8001344:	48 83 ec 40          	sub    rsp,0x40
 8001348:	48 89 e1             	mov    rcx,rsp
 800134b:	48 8b 45 b0          	mov    rax,QWORD PTR [rbp-0x50]
 800134f:	48 89 41 30          	mov    QWORD PTR [rcx+0x30],rax
 8001353:	48 8b 45 a8          	mov    rax,QWORD PTR [rbp-0x58]
 8001357:	48 89 41 28          	mov    QWORD PTR [rcx+0x28],rax
 800135b:	48 8b 45 a0          	mov    rax,QWORD PTR [rbp-0x60]
 800135f:	48 89 41 20          	mov    QWORD PTR [rcx+0x20],rax
 8001363:	48 8b 45 98          	mov    rax,QWORD PTR [rbp-0x68]
 8001367:	48 89 41 18          	mov    QWORD PTR [rcx+0x18],rax
 800136b:	48 8b 45 38          	mov    rax,QWORD PTR [rbp+0x38]
 800136f:	48 89 41 10          	mov    QWORD PTR [rcx+0x10],rax
 8001373:	48 8b 45 30          	mov    rax,QWORD PTR [rbp+0x30]
 8001377:	48 89 41 08          	mov    QWORD PTR [rcx+0x8],rax
 800137b:	48 8b 45 28          	mov    rax,QWORD PTR [rbp+0x28]
 800137f:	48 89 01             	mov    QWORD PTR [rcx],rax
 8001382:	e8 98 ee ff ff       	call   800021f <bytes.contains>
 8001387:	4c 89 e7             	mov    rdi,r12
 800138a:	48 83 ec c0          	sub    rsp,0xffffffffffffffc0
 800138e:	83 f8 00             	cmp    eax,0x0
 8001391:	74 09                	je     800139c <bytes.rtrim+0x10a>
 8001393:	48 83 eb 01          	sub    rbx,0x1
 8001397:	e9 19 ff ff ff       	jmp    80012b5 <bytes.rtrim+0x23>
 800139c:	48 89 f8             	mov    rax,rdi
 800139f:	49 89 dc             	mov    r12,rbx
 80013a2:	4c 8b 6d 10          	mov    r13,QWORD PTR [rbp+0x10]
 80013a6:	48 8b 5d 18          	mov    rbx,QWORD PTR [rbp+0x18]
 80013aa:	49 83 c4 01          	add    r12,0x1
 80013ae:	48 83 fb 00          	cmp    rbx,0x0
 80013b2:	0f 93 c1             	setae  cl
 80013b5:	0f b6 c9             	movzx  ecx,cl
 80013b8:	49 39 dc             	cmp    r12,rbx
 80013bb:	0f 96 c2             	setbe  dl
 80013be:	0f b6 d2             	movzx  edx,dl
 80013c1:	85 ca                	test   edx,ecx
 80013c3:	75 4d                	jne    8001412 <bytes.rtrim+0x180>
 80013c5:	48 8d 0d 5c f3 ff 77 	lea    rcx,[rip+0x77fff35c]        # 80000728 <strdata.923>
 80013cc:	48 89 4d e8          	mov    QWORD PTR [rbp-0x18],rcx
 80013d0:	48 c7 45 f0 27 00 00 	mov    QWORD PTR [rbp-0x10],0x27
 80013d7:	00 
 80013d8:	48 c7 45 f8 27 00 00 	mov    QWORD PTR [rbp-0x8],0x27
 80013df:	00 
 80013e0:	48 83 ec 20          	sub    rsp,0x20
 80013e4:	48 89 e1             	mov    rcx,rsp
 80013e7:	48 8b 55 f8          	mov    rdx,QWORD PTR [rbp-0x8]
 80013eb:	48 89 51 10          	mov    QWORD PTR [rcx+0x10],rdx
 80013ef:	48 8b 55 f0          	mov    rdx,QWORD PTR [rbp-0x10]
 80013f3:	48 89 51 08          	mov    QWORD PTR [rcx+0x8],rdx
 80013f7:	49 89 c6             	mov    r14,rax
 80013fa:	48 8b 45 e8          	mov    rax,QWORD PTR [rbp-0x18]
 80013fe:	48 89 01             	mov    QWORD PTR [rcx],rax
 8001401:	bf 00 00 00 00       	mov    edi,0x0
 8001406:	e8 b4 44 01 00       	call   80158bf <rt.abort_fixed>
 800140b:	4c 89 f0             	mov    rax,r14
 800140e:	48 83 ec e0          	sub    rsp,0xffffffffffffffe0
 8001412:	4c 89 e9             	mov    rcx,r13
 8001415:	48 83 c1 00          	add    rcx,0x0
 8001419:	48 89 4d d0          	mov    QWORD PTR [rbp-0x30],rcx
 800141d:	4c 89 65 d8          	mov    QWORD PTR [rbp-0x28],r12
 8001421:	48 89 5d e0          	mov    QWORD PTR [rbp-0x20],rbx
 8001425:	48 8b 4d e0          	mov    rcx,QWORD PTR [rbp-0x20]
 8001429:	48 89 48 10          	mov    QWORD PTR [rax+0x10],rcx
 800142d:	48 8b 4d d8          	mov    rcx,QWORD PTR [rbp-0x28]
 8001431:	48 89 48 08          	mov    QWORD PTR [rax+0x8],rcx
 8001435:	48 8b 4d d0          	mov    rcx,QWORD PTR [rbp-0x30]
 8001439:	48 89 08             	mov    QWORD PTR [rax],rcx
 800143c:	41 5e                	pop    r14
 800143e:	41 5d                	pop    r13
 8001440:	41 5c                	pop    r12
 8001442:	5b                   	pop    rbx
 8001443:	c9                   	leave  
 8001444:	c3                   	ret    

0000000008001445 <bytes.index_tw>:
 8001445:	55                   	push   rbp
 8001446:	48 89 e5             	mov    rbp,rsp
 8001449:	48 81 ec a8 01 00 00 	sub    rsp,0x1a8
 8001450:	53                   	push   rbx
 8001451:	41 54                	push   r12
 8001453:	41 55                	push   r13
 8001455:	41 56                	push   r14
 8001457:	41 57                	push   r15
 8001459:	c7 85 80 fe ff ff c6 	mov    DWORD PTR [rbp-0x180],0x97a0b8c6
 8001460:	b8 a0 97 
 8001463:	48 8b 45 18          	mov    rax,QWORD PTR [rbp+0x18]
 8001467:	48 89 45 c0          	mov    QWORD PTR [rbp-0x40],rax
 800146b:	4c 8b 6d 30          	mov    r13,QWORD PTR [rbp+0x30]
 800146f:	4c 89 6d d8          	mov    QWORD PTR [rbp-0x28],r13
 8001473:	4c 39 e8             	cmp    rax,r13
 8001476:	0f 82 6d 06 00 00    	jb     8001ae9 <bytes.index_tw+0x6a4>
 800147c:	4c 39 e8             	cmp    rax,r13
 800147f:	0f 84 e5 05 00 00    	je     8001a6a <bytes.index_tw+0x625>
 8001485:	48 83 ec 20          	sub    rsp,0x20
 8001489:	48 89 e1             	mov    rcx,rsp
 800148c:	48 8b 55 38          	mov    rdx,QWORD PTR [rbp+0x38]
 8001490:	48 89 51 10          	mov    QWORD PTR [rcx+0x10],rdx
 8001494:	48 8b 55 30          	mov    rdx,QWORD PTR [rbp+0x30]
 8001498:	48 89 51 08          	mov    QWORD PTR [rcx+0x8],rdx
 800149c:	48 89 c3             	mov    rbx,rax
 800149f:	48 8b 45 28          	mov    rax,QWORD PTR [rbp+0x28]
 80014a3:	48 89 01             	mov    QWORD PTR [rcx],rax
 80014a6:	bf 00 00 00 00       	mov    edi,0x0
 80014ab:	e8 5c 06 00 00       	call   8001b0c <bytes.max_suf>
 80014b0:	48 89 d1             	mov    rcx,rdx
 80014b3:	48 89 c2             	mov    rdx,rax
 80014b6:	48 89 d8             	mov    rax,rbx
 80014b9:	48 89 95 70 fe ff ff 	mov    QWORD PTR [rbp-0x190],rdx
 80014c0:	48 89 8d 78 fe ff ff 	mov    QWORD PTR [rbp-0x188],rcx
 80014c7:	48 83 ec e0          	sub    rsp,0xffffffffffffffe0
 80014cb:	4c 8b bd 70 fe ff ff 	mov    r15,QWORD PTR [rbp-0x190]
 80014d2:	4c 89 bd c0 fe ff ff 	mov    QWORD PTR [rbp-0x140],r15
 80014d9:	48 8b 8d 78 fe ff ff 	mov    rcx,QWORD PTR [rbp-0x188]
 80014e0:	48 89 8d c8 fe ff ff 	mov    QWORD PTR [rbp-0x138],rcx
 80014e7:	49 89 cc             	mov    r12,rcx
 80014ea:	48 83 ec 20          	sub    rsp,0x20
 80014ee:	48 89 e1             	mov    rcx,rsp
 80014f1:	48 8b 55 38          	mov    rdx,QWORD PTR [rbp+0x38]
 80014f5:	48 89 51 10          	mov    QWORD PTR [rcx+0x10],rdx
 80014f9:	48 8b 55 30          	mov    rdx,QWORD PTR [rbp+0x30]
 80014fd:	48 89 51 08          	mov    QWORD PTR [rcx+0x8],rdx
 8001501:	48 89 c3             	mov    rbx,rax
 8001504:	48 8b 45 28          	mov    rax,QWORD PTR [rbp+0x28]
 8001508:	48 89 01             	mov    QWORD PTR [rcx],rax
 800150b:	bf 01 00 00 00       	mov    edi,0x1
 8001510:	e8 f7 05 00 00       	call   8001b0c <bytes.max_suf>
 8001515:	4c 89 e1             	mov    rcx,r12
 8001518:	48 89 c6             	mov    rsi,rax
 800151b:	48 89 d8             	mov    rax,rbx
 800151e:	48 89 b5 60 fe ff ff 	mov    QWORD PTR [rbp-0x1a0],rsi
 8001525:	48 89 95 68 fe ff ff 	mov    QWORD PTR [rbp-0x198],rdx
 800152c:	48 83 ec e0          	sub    rsp,0xffffffffffffffe0
 8001530:	48 8b 9d 60 fe ff ff 	mov    rbx,QWORD PTR [rbp-0x1a0]
 8001537:	48 89 9d d0 fe ff ff 	mov    QWORD PTR [rbp-0x130],rbx
 800153e:	4c 8b a5 68 fe ff ff 	mov    r12,QWORD PTR [rbp-0x198]
 8001545:	4c 89 a5 d8 fe ff ff 	mov    QWORD PTR [rbp-0x128],r12
 800154c:	4c 89 fe             	mov    rsi,r15
 800154f:	48 83 c6 01          	add    rsi,0x1
 8001553:	48 89 da             	mov    rdx,rbx
 8001556:	48 83 c2 01          	add    rdx,0x1
 800155a:	48 39 d6             	cmp    rsi,rdx
 800155d:	73 06                	jae    8001565 <bytes.index_tw+0x120>
 800155f:	4c 89 e1             	mov    rcx,r12
 8001562:	49 89 df             	mov    r15,rbx
 8001565:	4c 89 7d b8          	mov    QWORD PTR [rbp-0x48],r15
 8001569:	48 8b 75 10          	mov    rsi,QWORD PTR [rbp+0x10]
 800156d:	48 89 75 f8          	mov    QWORD PTR [rbp-0x8],rsi
 8001571:	48 8b 5d 18          	mov    rbx,QWORD PTR [rbp+0x18]
 8001575:	4c 89 fa             	mov    rdx,r15
 8001578:	48 83 c2 01          	add    rdx,0x1
 800157c:	48 89 55 f0          	mov    QWORD PTR [rbp-0x10],rdx
 8001580:	48 83 fb 00          	cmp    rbx,0x0
 8001584:	40 0f 93 c7          	setae  dil
 8001588:	40 0f b6 ff          	movzx  edi,dil
 800158c:	48 39 da             	cmp    rdx,rbx
 800158f:	41 0f 96 c0          	setbe  r8b
 8001593:	45 0f b6 c0          	movzx  r8d,r8b
 8001597:	41 85 f8             	test   r8d,edi
 800159a:	75 6d                	jne    8001609 <bytes.index_tw+0x1c4>
 800159c:	48 8d 15 ad f1 ff 77 	lea    rdx,[rip+0x77fff1ad]        # 80000750 <strdata.1027>
 80015a3:	48 89 95 f8 fe ff ff 	mov    QWORD PTR [rbp-0x108],rdx
 80015aa:	48 c7 85 00 ff ff ff 	mov    QWORD PTR [rbp-0x100],0x2a
 80015b1:	2a 00 00 00 
 80015b5:	48 c7 85 08 ff ff ff 	mov    QWORD PTR [rbp-0xf8],0x2a
 80015bc:	2a 00 00 00 
 80015c0:	49 89 ce             	mov    r14,rcx
 80015c3:	48 83 ec 20          	sub    rsp,0x20
 80015c7:	48 89 e1             	mov    rcx,rsp
 80015ca:	48 8b 95 08 ff ff ff 	mov    rdx,QWORD PTR [rbp-0xf8]
 80015d1:	48 89 51 10          	mov    QWORD PTR [rcx+0x10],rdx
 80015d5:	48 8b 95 00 ff ff ff 	mov    rdx,QWORD PTR [rbp-0x100]
 80015dc:	48 89 51 08          	mov    QWORD PTR [rcx+0x8],rdx
 80015e0:	49 89 c4             	mov    r12,rax
 80015e3:	48 8b 85 f8 fe ff ff 	mov    rax,QWORD PTR [rbp-0x108]
 80015ea:	48 89 01             	mov    QWORD PTR [rcx],rax
 80015ed:	bf 00 00 00 00       	mov    edi,0x0
 80015f2:	e8 c8 42 01 00       	call   80158bf <rt.abort_fixed>
 80015f7:	4c 89 f1             	mov    rcx,r14
 80015fa:	4c 89 e0             	mov    rax,r12
 80015fd:	48 8b 55 f0          	mov    rdx,QWORD PTR [rbp-0x10]
 8001601:	48 8b 75 f8          	mov    rsi,QWORD PTR [rbp-0x8]
 8001605:	48 83 ec e0          	sub    rsp,0xffffffffffffffe0
 8001609:	48 83 c6 00          	add    rsi,0x0
 800160d:	48 89 b5 e0 fe ff ff 	mov    QWORD PTR [rbp-0x120],rsi
 8001614:	48 89 95 e8 fe ff ff 	mov    QWORD PTR [rbp-0x118],rdx
 800161b:	48 89 9d f0 fe ff ff 	mov    QWORD PTR [rbp-0x110],rbx
 8001622:	48 8b 75 10          	mov    rsi,QWORD PTR [rbp+0x10]
 8001626:	48 89 75 e8          	mov    QWORD PTR [rbp-0x18],rsi
 800162a:	48 8b 5d 18          	mov    rbx,QWORD PTR [rbp+0x18]
 800162e:	48 89 ca             	mov    rdx,rcx
 8001631:	4c 01 fa             	add    rdx,r15
 8001634:	48 83 c2 01          	add    rdx,0x1
 8001638:	48 89 55 e0          	mov    QWORD PTR [rbp-0x20],rdx
 800163c:	48 39 d9             	cmp    rcx,rbx
 800163f:	40 0f 96 c7          	setbe  dil
 8001643:	40 0f b6 ff          	movzx  edi,dil
 8001647:	48 39 da             	cmp    rdx,rbx
 800164a:	41 0f 96 c0          	setbe  r8b
 800164e:	45 0f b6 c0          	movzx  r8d,r8b
 8001652:	41 85 f8             	test   r8d,edi
 8001655:	75 6d                	jne    80016c4 <bytes.index_tw+0x27f>
 8001657:	48 8d 15 22 f1 ff 77 	lea    rdx,[rip+0x77fff122]        # 80000780 <strdata.1047>
 800165e:	48 89 95 28 ff ff ff 	mov    QWORD PTR [rbp-0xd8],rdx
 8001665:	48 c7 85 30 ff ff ff 	mov    QWORD PTR [rbp-0xd0],0x2a
 800166c:	2a 00 00 00 
 8001670:	48 c7 85 38 ff ff ff 	mov    QWORD PTR [rbp-0xc8],0x2a
 8001677:	2a 00 00 00 
 800167b:	49 89 ce             	mov    r14,rcx
 800167e:	48 83 ec 20          	sub    rsp,0x20
 8001682:	48 89 e1             	mov    rcx,rsp
 8001685:	48 8b 95 38 ff ff ff 	mov    rdx,QWORD PTR [rbp-0xc8]
 800168c:	48 89 51 10          	mov    QWORD PTR [rcx+0x10],rdx
 8001690:	48 8b 95 30 ff ff ff 	mov    rdx,QWORD PTR [rbp-0xd0]
 8001697:	48 89 51 08          	mov    QWORD PTR [rcx+0x8],rdx
 800169b:	49 89 c4             	mov    r12,rax
 800169e:	48 8b 85 28 ff ff ff 	mov    rax,QWORD PTR [rbp-0xd8]
 80016a5:	48 89 01             	mov    QWORD PTR [rcx],rax
 80016a8:	bf 00 00 00 00       	mov    edi,0x0
 80016ad:	e8 0d 42 01 00       	call   80158bf <rt.abort_fixed>
 80016b2:	4c 89 f1             	mov    rcx,r14
 80016b5:	4c 89 e0             	mov    rax,r12
 80016b8:	48 8b 55 e0          	mov    rdx,QWORD PTR [rbp-0x20]
 80016bc:	48 8b 75 e8          	mov    rsi,QWORD PTR [rbp-0x18]
 80016c0:	48 83 ec e0          	sub    rsp,0xffffffffffffffe0
 80016c4:	48 89 f7             	mov    rdi,rsi
 80016c7:	48 01 cf             	add    rdi,rcx
 80016ca:	48 89 d6             	mov    rsi,rdx
 80016cd:	48 29 ce             	sub    rsi,rcx
 80016d0:	48 89 da             	mov    rdx,rbx
 80016d3:	48 29 ca             	sub    rdx,rcx
 80016d6:	48 89 bd 10 ff ff ff 	mov    QWORD PTR [rbp-0xf0],rdi
 80016dd:	48 89 b5 18 ff ff ff 	mov    QWORD PTR [rbp-0xe8],rsi
 80016e4:	48 89 95 20 ff ff ff 	mov    QWORD PTR [rbp-0xe0],rdx
 80016eb:	49 89 cc             	mov    r12,rcx
 80016ee:	48 83 ec 30          	sub    rsp,0x30
 80016f2:	48 89 e1             	mov    rcx,rsp
 80016f5:	48 8b 95 20 ff ff ff 	mov    rdx,QWORD PTR [rbp-0xe0]
 80016fc:	48 89 51 28          	mov    QWORD PTR [rcx+0x28],rdx
 8001700:	48 8b 95 18 ff ff ff 	mov    rdx,QWORD PTR [rbp-0xe8]
 8001707:	48 89 51 20          	mov    QWORD PTR [rcx+0x20],rdx
 800170b:	48 8b 95 10 ff ff ff 	mov    rdx,QWORD PTR [rbp-0xf0]
 8001712:	48 89 51 18          	mov    QWORD PTR [rcx+0x18],rdx
 8001716:	48 8b 95 f0 fe ff ff 	mov    rdx,QWORD PTR [rbp-0x110]
 800171d:	48 89 51 10          	mov    QWORD PTR [rcx+0x10],rdx
 8001721:	48 8b 95 e8 fe ff ff 	mov    rdx,QWORD PTR [rbp-0x118]
 8001728:	48 89 51 08          	mov    QWORD PTR [rcx+0x8],rdx
 800172c:	48 89 c3             	mov    rbx,rax
 800172f:	48 8b 85 e0 fe ff ff 	mov    rax,QWORD PTR [rbp-0x120]
 8001736:	48 89 01             	mov    QWORD PTR [rcx],rax
 8001739:	e8 1f ec ff ff       	call   800035d <bytes.equal>
 800173e:	4c 89 e1             	mov    rcx,r12
 8001741:	89 c2                	mov    edx,eax
 8001743:	48 89 d8             	mov    rax,rbx
 8001746:	48 83 ec d0          	sub    rsp,0xffffffffffffffd0
 800174a:	83 fa 00             	cmp    edx,0x0
 800174d:	75 0e                	jne    800175d <bytes.index_tw+0x318>
 800174f:	48 89 4d d0          	mov    QWORD PTR [rbp-0x30],rcx
 8001753:	48 c7 45 c8 00 00 00 	mov    QWORD PTR [rbp-0x38],0x0
 800175a:	00 
 800175b:	eb 33                	jmp    8001790 <bytes.index_tw+0x34b>
 800175d:	4c 89 fa             	mov    rdx,r15
 8001760:	48 83 c2 01          	add    rdx,0x1
 8001764:	4c 89 e9             	mov    rcx,r13
 8001767:	4c 29 f9             	sub    rcx,r15
 800176a:	48 83 e9 01          	sub    rcx,0x1
 800176e:	48 39 ca             	cmp    rdx,rcx
 8001771:	77 08                	ja     800177b <bytes.index_tw+0x336>
 8001773:	4c 89 e9             	mov    rcx,r13
 8001776:	4c 29 f9             	sub    rcx,r15
 8001779:	eb 07                	jmp    8001782 <bytes.index_tw+0x33d>
 800177b:	4c 89 f9             	mov    rcx,r15
 800177e:	48 83 c1 02          	add    rcx,0x2
 8001782:	4d 89 ec             	mov    r12,r13
 8001785:	49 29 cc             	sub    r12,rcx
 8001788:	48 89 4d d0          	mov    QWORD PTR [rbp-0x30],rcx
 800178c:	4c 89 65 c8          	mov    QWORD PTR [rbp-0x38],r12
 8001790:	bb 00 00 00 00       	mov    ebx,0x0
 8001795:	41 bc 00 00 00 00    	mov    r12d,0x0
 800179b:	4c 89 e2             	mov    rdx,r12
 800179e:	48 89 55 b0          	mov    QWORD PTR [rbp-0x50],rdx
 80017a2:	4c 29 e8             	sub    rax,r13
 80017a5:	48 39 c3             	cmp    rbx,rax
 80017a8:	0f 87 a9 02 00 00    	ja     8001a57 <bytes.index_tw+0x612>
 80017ae:	4c 89 f8             	mov    rax,r15
 80017b1:	48 83 c0 01          	add    rax,0x1
 80017b5:	48 39 d0             	cmp    rax,rdx
 80017b8:	77 05                	ja     80017bf <bytes.index_tw+0x37a>
 80017ba:	49 89 d4             	mov    r12,rdx
 80017bd:	eb 07                	jmp    80017c6 <bytes.index_tw+0x381>
 80017bf:	4d 89 fc             	mov    r12,r15
 80017c2:	49 83 c4 01          	add    r12,0x1
 80017c6:	4d 39 ec             	cmp    r12,r13
 80017c9:	0f 92 c0             	setb   al
 80017cc:	0f b6 c0             	movzx  eax,al
 80017cf:	0f 83 ef 00 00 00    	jae    80018c4 <bytes.index_tw+0x47f>
 80017d5:	48 8b 4d 28          	mov    rcx,QWORD PTR [rbp+0x28]
 80017d9:	48 8b 45 30          	mov    rax,QWORD PTR [rbp+0x30]
 80017dd:	49 89 ce             	mov    r14,rcx
 80017e0:	4d 01 e6             	add    r14,r12
 80017e3:	49 39 c4             	cmp    r12,rax
 80017e6:	72 59                	jb     8001841 <bytes.index_tw+0x3fc>
 80017e8:	48 8d 05 c1 ef ff 77 	lea    rax,[rip+0x77ffefc1]        # 800007b0 <strdata.1118>
 80017ef:	48 89 85 40 ff ff ff 	mov    QWORD PTR [rbp-0xc0],rax
 80017f6:	48 c7 85 48 ff ff ff 	mov    QWORD PTR [rbp-0xb8],0x2a
 80017fd:	2a 00 00 00 
 8001801:	48 c7 85 50 ff ff ff 	mov    QWORD PTR [rbp-0xb0],0x2a
 8001808:	2a 00 00 00 
 800180c:	48 83 ec 20          	sub    rsp,0x20
 8001810:	48 89 e1             	mov    rcx,rsp
 8001813:	48 8b 85 50 ff ff ff 	mov    rax,QWORD PTR [rbp-0xb0]
 800181a:	48 89 41 10          	mov    QWORD PTR [rcx+0x10],rax
 800181e:	48 8b 85 48 ff ff ff 	mov    rax,QWORD PTR [rbp-0xb8]
 8001825:	48 89 41 08          	mov    QWORD PTR [rcx+0x8],rax
 8001829:	48 8b 85 40 ff ff ff 	mov    rax,QWORD PTR [rbp-0xc0]
 8001830:	48 89 01             	mov    QWORD PTR [rcx],rax
 8001833:	bf 00 00 00 00       	mov    edi,0x0
 8001838:	e8 82 40 01 00       	call   80158bf <rt.abort_fixed>
 800183d:	48 83 ec e0          	sub    rsp,0xffffffffffffffe0
 8001841:	45 0f b6 36          	movzx  r14d,BYTE PTR [r14]
 8001845:	48 8b 55 10          	mov    rdx,QWORD PTR [rbp+0x10]
 8001849:	48 8b 45 18          	mov    rax,QWORD PTR [rbp+0x18]
 800184d:	48 89 d9             	mov    rcx,rbx
 8001850:	4c 01 e1             	add    rcx,r12
 8001853:	49 89 d7             	mov    r15,rdx
 8001856:	49 01 cf             	add    r15,rcx
 8001859:	48 39 c1             	cmp    rcx,rax
 800185c:	72 59                	jb     80018b7 <bytes.index_tw+0x472>
 800185e:	48 8d 05 7b ef ff 77 	lea    rax,[rip+0x77ffef7b]        # 800007e0 <strdata.1132>
 8001865:	48 89 85 58 ff ff ff 	mov    QWORD PTR [rbp-0xa8],rax
 800186c:	48 c7 85 60 ff ff ff 	mov    QWORD PTR [rbp-0xa0],0x2a
 8001873:	2a 00 00 00 
 8001877:	48 c7 85 68 ff ff ff 	mov    QWORD PTR [rbp-0x98],0x2a
 800187e:	2a 00 00 00 
 8001882:	48 83 ec 20          	sub    rsp,0x20
 8001886:	48 89 e1             	mov    rcx,rsp
 8001889:	48 8b 85 68 ff ff ff 	mov    rax,QWORD PTR [rbp-0x98]
 8001890:	48 89 41 10          	mov    QWORD PTR [rcx+0x10],rax
 8001894:	48 8b 85 60 ff ff ff 	mov    rax,QWORD PTR [rbp-0xa0]
 800189b:	48 89 41 08          	mov    QWORD PTR [rcx+0x8],rax
 800189f:	48 8b 85 58 ff ff ff 	mov    rax,QWORD PTR [rbp-0xa8]
 80018a6:	48 89 01             	mov    QWORD PTR [rcx],rax
 80018a9:	bf 00 00 00 00       	mov    edi,0x0
 80018ae:	e8 0c 40 01 00       	call   80158bf <rt.abort_fixed>
 80018b3:	48 83 ec e0          	sub    rsp,0xffffffffffffffe0
 80018b7:	41 0f b6 07          	movzx  eax,BYTE PTR [r15]
 80018bb:	41 39 c6             	cmp    r14d,eax
 80018be:	0f 94 c0             	sete   al
 80018c1:	0f b6 c0             	movzx  eax,al
 80018c4:	83 f8 00             	cmp    eax,0x0
 80018c7:	74 09                	je     80018d2 <bytes.index_tw+0x48d>
 80018c9:	49 83 c4 01          	add    r12,0x1
 80018cd:	e9 f4 fe ff ff       	jmp    80017c6 <bytes.index_tw+0x381>
 80018d2:	48 8b 55 b0          	mov    rdx,QWORD PTR [rbp-0x50]
 80018d6:	48 8b 4d d0          	mov    rcx,QWORD PTR [rbp-0x30]
 80018da:	4c 8b 75 c8          	mov    r14,QWORD PTR [rbp-0x38]
 80018de:	4c 8b 7d b8          	mov    r15,QWORD PTR [rbp-0x48]
 80018e2:	48 8b 45 c0          	mov    rax,QWORD PTR [rbp-0x40]
 80018e6:	4d 39 ec             	cmp    r12,r13
 80018e9:	0f 82 54 01 00 00    	jb     8001a43 <bytes.index_tw+0x5fe>
 80018ef:	49 89 d4             	mov    r12,rdx
 80018f2:	4c 89 e2             	mov    rdx,r12
 80018f5:	4d 89 fc             	mov    r12,r15
 80018f8:	49 83 c4 01          	add    r12,0x1
 80018fc:	4d 89 e5             	mov    r13,r12
 80018ff:	49 89 d4             	mov    r12,rdx
 8001902:	4d 39 e5             	cmp    r13,r12
 8001905:	0f 97 c0             	seta   al
 8001908:	0f b6 c0             	movzx  eax,al
 800190b:	0f 86 e2 00 00 00    	jbe    80019f3 <bytes.index_tw+0x5ae>
 8001911:	48 8b 55 28          	mov    rdx,QWORD PTR [rbp+0x28]
 8001915:	48 8b 45 30          	mov    rax,QWORD PTR [rbp+0x30]
 8001919:	4c 89 e9             	mov    rcx,r13
 800191c:	48 83 e9 01          	sub    rcx,0x1
 8001920:	49 89 d6             	mov    r14,rdx
 8001923:	49 01 ce             	add    r14,rcx
 8001926:	48 39 c1             	cmp    rcx,rax
 8001929:	72 53                	jb     800197e <bytes.index_tw+0x539>
 800192b:	48 8d 05 de ee ff 77 	lea    rax,[rip+0x77ffeede]        # 80000810 <strdata.1176>
 8001932:	48 89 85 70 ff ff ff 	mov    QWORD PTR [rbp-0x90],rax
 8001939:	48 c7 85 78 ff ff ff 	mov    QWORD PTR [rbp-0x88],0x2a
 8001940:	2a 00 00 00 
 8001944:	48 c7 45 80 2a 00 00 	mov    QWORD PTR [rbp-0x80],0x2a
 800194b:	00 
 800194c:	48 83 ec 20          	sub    rsp,0x20
 8001950:	48 89 e1             	mov    rcx,rsp
 8001953:	48 8b 45 80          	mov    rax,QWORD PTR [rbp-0x80]
 8001957:	48 89 41 10          	mov    QWORD PTR [rcx+0x10],rax
 800195b:	48 8b 85 78 ff ff ff 	mov    rax,QWORD PTR [rbp-0x88]
 8001962:	48 89 41 08          	mov    QWORD PTR [rcx+0x8],rax
 8001966:	48 8b 85 70 ff ff ff 	mov    rax,QWORD PTR [rbp-0x90]
 800196d:	48 89 01             	mov    QWORD PTR [rcx],rax
 8001970:	bf 00 00 00 00       	mov    edi,0x0
 8001975:	e8 45 3f 01 00       	call   80158bf <rt.abort_fixed>
 800197a:	48 83 ec e0          	sub    rsp,0xffffffffffffffe0
 800197e:	45 0f b6 36          	movzx  r14d,BYTE PTR [r14]
 8001982:	48 8b 55 10          	mov    rdx,QWORD PTR [rbp+0x10]
 8001986:	48 8b 45 18          	mov    rax,QWORD PTR [rbp+0x18]
 800198a:	48 89 d9             	mov    rcx,rbx
 800198d:	4c 01 e9             	add    rcx,r13
 8001990:	48 83 e9 01          	sub    rcx,0x1
 8001994:	49 89 d7             	mov    r15,rdx
 8001997:	49 01 cf             	add    r15,rcx
 800199a:	48 39 c1             	cmp    rcx,rax
 800199d:	72 47                	jb     80019e6 <bytes.index_tw+0x5a1>
 800199f:	48 8d 05 9a ee ff 77 	lea    rax,[rip+0x77ffee9a]        # 80000840 <strdata.1191>
 80019a6:	48 89 45 88          	mov    QWORD PTR [rbp-0x78],rax
 80019aa:	48 c7 45 90 2a 00 00 	mov    QWORD PTR [rbp-0x70],0x2a
 80019b1:	00 
 80019b2:	48 c7 45 98 2a 00 00 	mov    QWORD PTR [rbp-0x68],0x2a
 80019b9:	00 
 80019ba:	48 83 ec 20          	sub    rsp,0x20
 80019be:	48 89 e1             	mov    rcx,rsp
 80019c1:	48 8b 45 98          	mov    rax,QWORD PTR [rbp-0x68]
 80019c5:	48 89 41 10          	mov    QWORD PTR [rcx+0x10],rax
 80019c9:	48 8b 45 90          	mov    rax,QWORD PTR [rbp-0x70]
 80019cd:	48 89 41 08          	mov    QWORD PTR [rcx+0x8],rax
 80019d1:	48 8b 45 88          	mov    rax,QWORD PTR [rbp-0x78]
 80019d5:	48 89 01             	mov    QWORD PTR [rcx],rax
 80019d8:	bf 00 00 00 00       	mov    edi,0x0
 80019dd:	e8 dd 3e 01 00       	call   80158bf <rt.abort_fixed>
 80019e2:	48 83 ec e0          	sub    rsp,0xffffffffffffffe0
 80019e6:	41 0f b6 07          	movzx  eax,BYTE PTR [r15]
 80019ea:	41 39 c6             	cmp    r14d,eax
 80019ed:	0f 94 c0             	sete   al
 80019f0:	0f b6 c0             	movzx  eax,al
 80019f3:	83 f8 00             	cmp    eax,0x0
 80019f6:	74 09                	je     8001a01 <bytes.index_tw+0x5bc>
 80019f8:	49 83 ed 01          	sub    r13,0x1
 80019fc:	e9 01 ff ff ff       	jmp    8001902 <bytes.index_tw+0x4bd>
 8001a01:	4c 89 e2             	mov    rdx,r12
 8001a04:	4d 89 ec             	mov    r12,r13
 8001a07:	48 8b 4d d0          	mov    rcx,QWORD PTR [rbp-0x30]
 8001a0b:	4c 8b 75 c8          	mov    r14,QWORD PTR [rbp-0x38]
 8001a0f:	4c 8b 7d b8          	mov    r15,QWORD PTR [rbp-0x48]
 8001a13:	4c 8b 6d d8          	mov    r13,QWORD PTR [rbp-0x28]
 8001a17:	48 8b 45 c0          	mov    rax,QWORD PTR [rbp-0x40]
 8001a1b:	49 39 d4             	cmp    r12,rdx
 8001a1e:	76 0b                	jbe    8001a2b <bytes.index_tw+0x5e6>
 8001a20:	48 01 cb             	add    rbx,rcx
 8001a23:	4d 89 f4             	mov    r12,r14
 8001a26:	e9 70 fd ff ff       	jmp    800179b <bytes.index_tw+0x356>
 8001a2b:	c7 45 a0 7e e5 8c 67 	mov    DWORD PTR [rbp-0x60],0x678ce57e
 8001a32:	48 89 5d a8          	mov    QWORD PTR [rbp-0x58],rbx
 8001a36:	48 8b 45 a0          	mov    rax,QWORD PTR [rbp-0x60]
 8001a3a:	48 8b 55 a8          	mov    rdx,QWORD PTR [rbp-0x58]
 8001a3e:	e9 be 00 00 00       	jmp    8001b01 <bytes.index_tw+0x6bc>
 8001a43:	4c 89 e2             	mov    rdx,r12
 8001a46:	4c 29 fa             	sub    rdx,r15
 8001a49:	48 01 d3             	add    rbx,rdx
 8001a4c:	41 bc 00 00 00 00    	mov    r12d,0x0
 8001a52:	e9 44 fd ff ff       	jmp    800179b <bytes.index_tw+0x356>
 8001a57:	48 8b 85 80 fe ff ff 	mov    rax,QWORD PTR [rbp-0x180]
 8001a5e:	48 8b 95 88 fe ff ff 	mov    rdx,QWORD PTR [rbp-0x178]
 8001a65:	e9 97 00 00 00       	jmp    8001b01 <bytes.index_tw+0x6bc>
 8001a6a:	48 83 ec 30          	sub    rsp,0x30
 8001a6e:	48 89 e1             	mov    rcx,rsp
 8001a71:	48 8b 45 38          	mov    rax,QWORD PTR [rbp+0x38]
 8001a75:	48 89 41 28          	mov    QWORD PTR [rcx+0x28],rax
 8001a79:	48 8b 45 30          	mov    rax,QWORD PTR [rbp+0x30]
 8001a7d:	48 89 41 20          	mov    QWORD PTR [rcx+0x20],rax
 8001a81:	48 8b 45 28          	mov    rax,QWORD PTR [rbp+0x28]
 8001a85:	48 89 41 18          	mov    QWORD PTR [rcx+0x18],rax
 8001a89:	48 8b 45 20          	mov    rax,QWORD PTR [rbp+0x20]
 8001a8d:	48 89 41 10          	mov    QWORD PTR [rcx+0x10],rax
 8001a91:	48 8b 45 18          	mov    rax,QWORD PTR [rbp+0x18]
 8001a95:	48 89 41 08          	mov    QWORD PTR [rcx+0x8],rax
 8001a99:	48 8b 45 10          	mov    rax,QWORD PTR [rbp+0x10]
 8001a9d:	48 89 01             	mov    QWORD PTR [rcx],rax
 8001aa0:	e8 b8 e8 ff ff       	call   800035d <bytes.equal>
 8001aa5:	48 83 ec d0          	sub    rsp,0xffffffffffffffd0
 8001aa9:	83 f8 00             	cmp    eax,0x0
 8001aac:	75 13                	jne    8001ac1 <bytes.index_tw+0x67c>
 8001aae:	c7 85 b0 fe ff ff c6 	mov    DWORD PTR [rbp-0x150],0x97a0b8c6
 8001ab5:	b8 a0 97 
 8001ab8:	48 8d 85 b0 fe ff ff 	lea    rax,[rbp-0x150]
 8001abf:	eb 1c                	jmp    8001add <bytes.index_tw+0x698>
 8001ac1:	c7 85 a0 fe ff ff 7e 	mov    DWORD PTR [rbp-0x160],0x678ce57e
 8001ac8:	e5 8c 67 
 8001acb:	48 c7 85 a8 fe ff ff 	mov    QWORD PTR [rbp-0x158],0x0
 8001ad2:	00 00 00 00 
 8001ad6:	48 8d 85 a0 fe ff ff 	lea    rax,[rbp-0x160]
 8001add:	48 89 c1             	mov    rcx,rax
 8001ae0:	48 8b 01             	mov    rax,QWORD PTR [rcx]
 8001ae3:	48 8b 51 08          	mov    rdx,QWORD PTR [rcx+0x8]
 8001ae7:	eb 18                	jmp    8001b01 <bytes.index_tw+0x6bc>
 8001ae9:	c7 85 90 fe ff ff c6 	mov    DWORD PTR [rbp-0x170],0x97a0b8c6
 8001af0:	b8 a0 97 
 8001af3:	48 8b 85 90 fe ff ff 	mov    rax,QWORD PTR [rbp-0x170]
 8001afa:	48 8b 95 98 fe ff ff 	mov    rdx,QWORD PTR [rbp-0x168]
 8001b01:	41 5f                	pop    r15
 8001b03:	41 5e                	pop    r14
 8001b05:	41 5d                	pop    r13
 8001b07:	41 5c                	pop    r12
 8001b09:	5b                   	pop    rbx
 8001b0a:	c9                   	leave  
 8001b0b:	c3                   	ret    

0000000008001b0c <bytes.max_suf>:
 8001b0c:	55                   	push   rbp
 8001b0d:	48 89 e5             	mov    rbp,rsp
 8001b10:	48 83 ec 68          	sub    rsp,0x68
 8001b14:	53                   	push   rbx
 8001b15:	41 54                	push   r12
 8001b17:	41 55                	push   r13
 8001b19:	41 56                	push   r14
 8001b1b:	41 57                	push   r15
 8001b1d:	89 7d e8             	mov    DWORD PTR [rbp-0x18],edi
 8001b20:	48 8b 45 18          	mov    rax,QWORD PTR [rbp+0x18]
 8001b24:	48 89 45 f0          	mov    QWORD PTR [rbp-0x10],rax
 8001b28:	49 c7 c6 ff ff ff ff 	mov    r14,0xffffffffffffffff
 8001b2f:	41 bd 00 00 00 00    	mov    r13d,0x0
 8001b35:	41 bc 01 00 00 00    	mov    r12d,0x1
 8001b3b:	41 bf 01 00 00 00    	mov    r15d,0x1
 8001b41:	4c 89 f3             	mov    rbx,r14
 8001b44:	4c 89 e9             	mov    rcx,r13
 8001b47:	4c 01 e1             	add    rcx,r12
 8001b4a:	48 39 c1             	cmp    rcx,rax
 8001b4d:	0f 83 49 01 00 00    	jae    8001c9c <bytes.max_suf+0x190>
 8001b53:	48 8b 75 10          	mov    rsi,QWORD PTR [rbp+0x10]
 8001b57:	48 8b 4d 18          	mov    rcx,QWORD PTR [rbp+0x18]
 8001b5b:	4c 89 ea             	mov    rdx,r13
 8001b5e:	4c 01 e2             	add    rdx,r12
 8001b61:	4d 89 e6             	mov    r14,r12
 8001b64:	49 89 f4             	mov    r12,rsi
 8001b67:	49 01 d4             	add    r12,rdx
 8001b6a:	48 39 ca             	cmp    rdx,rcx
 8001b6d:	72 4e                	jb     8001bbd <bytes.max_suf+0xb1>
 8001b6f:	48 8d 05 fa ec ff 77 	lea    rax,[rip+0x77ffecfa]        # 80000870 <strdata.1248>
 8001b76:	48 89 45 a0          	mov    QWORD PTR [rbp-0x60],rax
 8001b7a:	48 c7 45 a8 2a 00 00 	mov    QWORD PTR [rbp-0x58],0x2a
 8001b81:	00 
 8001b82:	48 c7 45 b0 2a 00 00 	mov    QWORD PTR [rbp-0x50],0x2a
 8001b89:	00 
 8001b8a:	48 83 ec 20          	sub    rsp,0x20
 8001b8e:	48 89 e1             	mov    rcx,rsp
 8001b91:	48 8b 45 b0          	mov    rax,QWORD PTR [rbp-0x50]
 8001b95:	48 89 41 10          	mov    QWORD PTR [rcx+0x10],rax
 8001b99:	48 8b 45 a8          	mov    rax,QWORD PTR [rbp-0x58]
 8001b9d:	48 89 41 08          	mov    QWORD PTR [rcx+0x8],rax
 8001ba1:	48 8b 45 a0          	mov    rax,QWORD PTR [rbp-0x60]
 8001ba5:	48 89 01             	mov    QWORD PTR [rcx],rax
 8001ba8:	bf 00 00 00 00       	mov    edi,0x0
 8001bad:	e8 0d 3d 01 00       	call   80158bf <rt.abort_fixed>
 8001bb2:	48 8b 45 f0          	mov    rax,QWORD PTR [rbp-0x10]
 8001bb6:	8b 7d e8             	mov    edi,DWORD PTR [rbp-0x18]
 8001bb9:	48 83 ec e0          	sub    rsp,0xffffffffffffffe0
 8001bbd:	45 0f b6 24 24       	movzx  r12d,BYTE PTR [r12]
 8001bc2:	48 8b 4d 10          	mov    rcx,QWORD PTR [rbp+0x10]
 8001bc6:	48 8b 55 18          	mov    rdx,QWORD PTR [rbp+0x18]
 8001bca:	48 89 de             	mov    rsi,rbx
 8001bcd:	4c 01 f6             	add    rsi,r14
 8001bd0:	48 01 f1             	add    rcx,rsi
 8001bd3:	48 89 4d e0          	mov    QWORD PTR [rbp-0x20],rcx
 8001bd7:	48 39 d6             	cmp    rsi,rdx
 8001bda:	72 52                	jb     8001c2e <bytes.max_suf+0x122>
 8001bdc:	48 8d 05 bd ec ff 77 	lea    rax,[rip+0x77ffecbd]        # 800008a0 <strdata.1263>
 8001be3:	48 89 45 b8          	mov    QWORD PTR [rbp-0x48],rax
 8001be7:	48 c7 45 c0 2a 00 00 	mov    QWORD PTR [rbp-0x40],0x2a
 8001bee:	00 
 8001bef:	48 c7 45 c8 2a 00 00 	mov    QWORD PTR [rbp-0x38],0x2a
 8001bf6:	00 
 8001bf7:	48 83 ec 20          	sub    rsp,0x20
 8001bfb:	48 89 e1             	mov    rcx,rsp
 8001bfe:	48 8b 45 c8          	mov    rax,QWORD PTR [rbp-0x38]
 8001c02:	48 89 41 10          	mov    QWORD PTR [rcx+0x10],rax
 8001c06:	48 8b 45 c0          	mov    rax,QWORD PTR [rbp-0x40]
 8001c0a:	48 89 41 08          	mov    QWORD PTR [rcx+0x8],rax
 8001c0e:	48 8b 45 b8          	mov    rax,QWORD PTR [rbp-0x48]
 8001c12:	48 89 01             	mov    QWORD PTR [rcx],rax
 8001c15:	bf 00 00 00 00       	mov    edi,0x0
 8001c1a:	e8 a0 3c 01 00       	call   80158bf <rt.abort_fixed>
 8001c1f:	48 8b 4d e0          	mov    rcx,QWORD PTR [rbp-0x20]
 8001c23:	48 8b 45 f0          	mov    rax,QWORD PTR [rbp-0x10]
 8001c27:	8b 7d e8             	mov    edi,DWORD PTR [rbp-0x18]
 8001c2a:	48 83 ec e0          	sub    rsp,0xffffffffffffffe0
 8001c2e:	0f b6 09             	movzx  ecx,BYTE PTR [rcx]
 8001c31:	41 39 cc             	cmp    r12d,ecx
 8001c34:	74 38                	je     8001c6e <bytes.max_suf+0x162>
 8001c36:	41 39 cc             	cmp    r12d,ecx
 8001c39:	0f 92 c1             	setb   cl
 8001c3c:	0f b6 c9             	movzx  ecx,cl
 8001c3f:	39 f9                	cmp    ecx,edi
 8001c41:	75 0e                	jne    8001c51 <bytes.max_suf+0x145>
 8001c43:	4d 89 ec             	mov    r12,r13
 8001c46:	49 83 c5 01          	add    r13,0x1
 8001c4a:	bb 01 00 00 00       	mov    ebx,0x1
 8001c4f:	eb 12                	jmp    8001c63 <bytes.max_suf+0x157>
 8001c51:	4d 89 ec             	mov    r12,r13
 8001c54:	49 89 dd             	mov    r13,rbx
 8001c57:	4d 01 f4             	add    r12,r14
 8001c5a:	4c 89 e3             	mov    rbx,r12
 8001c5d:	4c 29 eb             	sub    rbx,r13
 8001c60:	4d 87 ec             	xchg   r12,r13
 8001c63:	4d 89 e6             	mov    r14,r12
 8001c66:	41 bc 01 00 00 00    	mov    r12d,0x1
 8001c6c:	eb 26                	jmp    8001c94 <bytes.max_suf+0x188>
 8001c6e:	4d 89 ec             	mov    r12,r13
 8001c71:	49 89 dd             	mov    r13,rbx
 8001c74:	4c 89 fb             	mov    rbx,r15
 8001c77:	49 39 de             	cmp    r14,rbx
 8001c7a:	74 09                	je     8001c85 <bytes.max_suf+0x179>
 8001c7c:	49 83 c6 01          	add    r14,0x1
 8001c80:	4d 87 e6             	xchg   r14,r12
 8001c83:	eb 0c                	jmp    8001c91 <bytes.max_suf+0x185>
 8001c85:	49 01 dc             	add    r12,rbx
 8001c88:	4d 89 e6             	mov    r14,r12
 8001c8b:	41 bc 01 00 00 00    	mov    r12d,0x1
 8001c91:	4d 87 ee             	xchg   r14,r13
 8001c94:	49 89 df             	mov    r15,rbx
 8001c97:	e9 a5 fe ff ff       	jmp    8001b41 <bytes.max_suf+0x35>
 8001c9c:	48 89 5d d0          	mov    QWORD PTR [rbp-0x30],rbx
 8001ca0:	4c 89 7d d8          	mov    QWORD PTR [rbp-0x28],r15
 8001ca4:	48 8b 45 d0          	mov    rax,QWORD PTR [rbp-0x30]
 8001ca8:	48 8b 55 d8          	mov    rdx,QWORD PTR [rbp-0x28]
 8001cac:	41 5f                	pop    r15
 8001cae:	41 5e                	pop    r14
 8001cb0:	41 5d                	pop    r13
 8001cb2:	41 5c                	pop    r12
 8001cb4:	5b                   	pop    rbx
 8001cb5:	c9                   	leave  
 8001cb6:	c3                   	ret    

0000000008001cb7 <encoding.utf8.toutf8>:
 8001cb7:	55                   	push   rbp
 8001cb8:	48 89 e5             	mov    rbp,rsp
 8001cbb:	48 89 f8             	mov    rax,rdi
 8001cbe:	48 8b 4d 20          	mov    rcx,QWORD PTR [rbp+0x20]
 8001cc2:	48 89 48 10          	mov    QWORD PTR [rax+0x10],rcx
 8001cc6:	48 8b 4d 18          	mov    rcx,QWORD PTR [rbp+0x18]
 8001cca:	48 89 48 08          	mov    QWORD PTR [rax+0x8],rcx
 8001cce:	48 8b 4d 10          	mov    rcx,QWORD PTR [rbp+0x10]
 8001cd2:	48 89 08             	mov    QWORD PTR [rax],rcx
 8001cd5:	c9                   	leave  
 8001cd6:	c3                   	ret    

0000000008001cd7 <encoding.utf8.decode>:
 8001cd7:	55                   	push   rbp
 8001cd8:	48 89 e5             	mov    rbp,rsp
 8001cdb:	48 81 ec a0 00 00 00 	sub    rsp,0xa0
 8001ce2:	53                   	push   rbx
 8001ce3:	41 54                	push   r12
 8001ce5:	41 55                	push   r13
 8001ce7:	41 56                	push   r14
 8001ce9:	48 89 f8             	mov    rax,rdi
 8001cec:	8b 4d 10             	mov    ecx,DWORD PTR [rbp+0x10]
 8001cef:	81 f9 71 81 80 a9    	cmp    ecx,0xa9808171
 8001cf5:	0f 84 a5 00 00 00    	je     8001da0 <encoding.utf8.decode+0xc9>
 8001cfb:	81 f9 4e 4e f7 44    	cmp    ecx,0x44f74e4e
 8001d01:	74 57                	je     8001d5a <encoding.utf8.decode+0x83>
 8001d03:	48 8d 0d c6 eb ff 77 	lea    rcx,[rip+0x77ffebc6]        # 800008d0 <strdata.52>
 8001d0a:	48 89 4d e8          	mov    QWORD PTR [rbp-0x18],rcx
 8001d0e:	48 c7 45 f0 31 00 00 	mov    QWORD PTR [rbp-0x10],0x31
 8001d15:	00 
 8001d16:	48 c7 45 f8 31 00 00 	mov    QWORD PTR [rbp-0x8],0x31
 8001d1d:	00 
 8001d1e:	48 83 ec 20          	sub    rsp,0x20
 8001d22:	48 89 e1             	mov    rcx,rsp
 8001d25:	48 8b 55 f8          	mov    rdx,QWORD PTR [rbp-0x8]
 8001d29:	48 89 51 10          	mov    QWORD PTR [rcx+0x10],rdx
 8001d2d:	48 8b 55 f0          	mov    rdx,QWORD PTR [rbp-0x10]
 8001d31:	48 89 51 08          	mov    QWORD PTR [rcx+0x8],rdx
 8001d35:	49 89 c6             	mov    r14,rax
 8001d38:	48 8b 45 e8          	mov    rax,QWORD PTR [rbp-0x18]
 8001d3c:	48 89 01             	mov    QWORD PTR [rcx],rax
 8001d3f:	bf 04 00 00 00       	mov    edi,0x4
 8001d44:	e8 76 3b 01 00       	call   80158bf <rt.abort_fixed>
 8001d49:	48 83 ec e0          	sub    rsp,0xffffffffffffffe0
 8001d4d:	4c 89 f0             	mov    rax,r14
 8001d50:	b9 00 00 00 00       	mov    ecx,0x0
 8001d55:	e9 cf 00 00 00       	jmp    8001e29 <encoding.utf8.decode+0x152>
 8001d5a:	49 89 c6             	mov    r14,rax
 8001d5d:	4c 8b 6d 18          	mov    r13,QWORD PTR [rbp+0x18]
 8001d61:	4c 89 6d b0          	mov    QWORD PTR [rbp-0x50],r13
 8001d65:	4c 8b 65 20          	mov    r12,QWORD PTR [rbp+0x20]
 8001d69:	4c 89 65 b8          	mov    QWORD PTR [rbp-0x48],r12
 8001d6d:	48 8b 5d 28          	mov    rbx,QWORD PTR [rbp+0x28]
 8001d71:	48 89 5d c0          	mov    QWORD PTR [rbp-0x40],rbx
 8001d75:	ba 20 00 00 00       	mov    edx,0x20
 8001d7a:	be 00 00 00 00       	mov    esi,0x0
 8001d7f:	48 8d 7d c8          	lea    rdi,[rbp-0x38]
 8001d83:	e8 7a 44 01 00       	call   8016202 <rt.memset>
 8001d88:	4c 89 f0             	mov    rax,r14
 8001d8b:	4c 89 6d d0          	mov    QWORD PTR [rbp-0x30],r13
 8001d8f:	4c 89 65 d8          	mov    QWORD PTR [rbp-0x28],r12
 8001d93:	48 89 5d e0          	mov    QWORD PTR [rbp-0x20],rbx
 8001d97:	48 8d 4d c8          	lea    rcx,[rbp-0x38]
 8001d9b:	e9 89 00 00 00       	jmp    8001e29 <encoding.utf8.decode+0x152>
 8001da0:	48 8b 4d 18          	mov    rcx,QWORD PTR [rbp+0x18]
 8001da4:	48 89 8d 78 ff ff ff 	mov    QWORD PTR [rbp-0x88],rcx
 8001dab:	48 8b 4d 20          	mov    rcx,QWORD PTR [rbp+0x20]
 8001daf:	48 89 4d 80          	mov    QWORD PTR [rbp-0x80],rcx
 8001db3:	48 89 c3             	mov    rbx,rax
 8001db6:	48 8b 45 28          	mov    rax,QWORD PTR [rbp+0x28]
 8001dba:	48 89 45 88          	mov    QWORD PTR [rbp-0x78],rax
 8001dbe:	ba 20 00 00 00       	mov    edx,0x20
 8001dc3:	be 00 00 00 00       	mov    esi,0x0
 8001dc8:	48 8d 7d 90          	lea    rdi,[rbp-0x70]
 8001dcc:	e8 31 44 01 00       	call   8016202 <rt.memset>
 8001dd1:	48 89 d8             	mov    rax,rbx
 8001dd4:	48 83 ec 20          	sub    rsp,0x20
 8001dd8:	48 89 e1             	mov    rcx,rsp
 8001ddb:	48 8b 55 88          	mov    rdx,QWORD PTR [rbp-0x78]
 8001ddf:	48 89 51 10          	mov    QWORD PTR [rcx+0x10],rdx
 8001de3:	48 8b 55 80          	mov    rdx,QWORD PTR [rbp-0x80]
 8001de7:	48 89 51 08          	mov    QWORD PTR [rcx+0x8],rdx
 8001deb:	48 89 c3             	mov    rbx,rax
 8001dee:	48 8b 85 78 ff ff ff 	mov    rax,QWORD PTR [rbp-0x88]
 8001df5:	48 89 01             	mov    QWORD PTR [rcx],rax
 8001df8:	48 8d bd 60 ff ff ff 	lea    rdi,[rbp-0xa0]
 8001dff:	e8 b3 fe ff ff       	call   8001cb7 <encoding.utf8.toutf8>
 8001e04:	48 89 c1             	mov    rcx,rax
 8001e07:	48 89 d8             	mov    rax,rbx
 8001e0a:	48 83 ec e0          	sub    rsp,0xffffffffffffffe0
 8001e0e:	48 8b 11             	mov    rdx,QWORD PTR [rcx]
 8001e11:	48 89 55 98          	mov    QWORD PTR [rbp-0x68],rdx
 8001e15:	48 8b 51 08          	mov    rdx,QWORD PTR [rcx+0x8]
 8001e19:	48 89 55 a0          	mov    QWORD PTR [rbp-0x60],rdx
 8001e1d:	48 8b 49 10          	mov    rcx,QWORD PTR [rcx+0x10]
 8001e21:	48 89 4d a8          	mov    QWORD PTR [rbp-0x58],rcx
 8001e25:	48 8d 4d 90          	lea    rcx,[rbp-0x70]
 8001e29:	48 8b 51 18          	mov    rdx,QWORD PTR [rcx+0x18]
 8001e2d:	48 89 50 18          	mov    QWORD PTR [rax+0x18],rdx
 8001e31:	48 8b 51 10          	mov    rdx,QWORD PTR [rcx+0x10]
 8001e35:	48 89 50 10          	mov    QWORD PTR [rax+0x10],rdx
 8001e39:	48 8b 51 08          	mov    rdx,QWORD PTR [rcx+0x8]
 8001e3d:	48 89 50 08          	mov    QWORD PTR [rax+0x8],rdx
 8001e41:	48 8b 09             	mov    rcx,QWORD PTR [rcx]
 8001e44:	48 89 08             	mov    QWORD PTR [rax],rcx
 8001e47:	41 5e                	pop    r14
 8001e49:	41 5d                	pop    r13
 8001e4b:	41 5c                	pop    r12
 8001e4d:	5b                   	pop    rbx
 8001e4e:	c9                   	leave  
 8001e4f:	c3                   	ret    

0000000008001e50 <encoding.utf8.next>:
 8001e50:	55                   	push   rbp
 8001e51:	48 89 e5             	mov    rbp,rsp
 8001e54:	48 81 ec 48 01 00 00 	sub    rsp,0x148
 8001e5b:	53                   	push   rbx
 8001e5c:	41 54                	push   r12
 8001e5e:	41 55                	push   r13
 8001e60:	41 56                	push   r14
 8001e62:	41 57                	push   r15
 8001e64:	48 89 fb             	mov    rbx,rdi
 8001e67:	48 8b 0b             	mov    rcx,QWORD PTR [rbx]
 8001e6a:	48 8b 43 10          	mov    rax,QWORD PTR [rbx+0x10]
 8001e6e:	48 39 c1             	cmp    rcx,rax
 8001e71:	76 59                	jbe    8001ecc <encoding.utf8.next+0x7c>
 8001e73:	48 8d 05 8e ea ff 77 	lea    rax,[rip+0x77ffea8e]        # 80000908 <strdata.71>
 8001e7a:	48 89 85 00 ff ff ff 	mov    QWORD PTR [rbp-0x100],rax
 8001e81:	48 c7 85 08 ff ff ff 	mov    QWORD PTR [rbp-0xf8],0x43
 8001e88:	43 00 00 00 
 8001e8c:	48 c7 85 10 ff ff ff 	mov    QWORD PTR [rbp-0xf0],0x43
 8001e93:	43 00 00 00 
 8001e97:	48 83 ec 20          	sub    rsp,0x20
 8001e9b:	48 89 e1             	mov    rcx,rsp
 8001e9e:	48 8b 85 10 ff ff ff 	mov    rax,QWORD PTR [rbp-0xf0]
 8001ea5:	48 89 41 10          	mov    QWORD PTR [rcx+0x10],rax
 8001ea9:	48 8b 85 08 ff ff ff 	mov    rax,QWORD PTR [rbp-0xf8]
 8001eb0:	48 89 41 08          	mov    QWORD PTR [rcx+0x8],rax
 8001eb4:	48 8b 85 00 ff ff ff 	mov    rax,QWORD PTR [rbp-0x100]
 8001ebb:	48 89 01             	mov    QWORD PTR [rcx],rax
 8001ebe:	e8 cf 39 01 00       	call   8015892 <rt.abort>
 8001ec3:	48 89 df             	mov    rdi,rbx
 8001ec6:	48 83 ec e0          	sub    rsp,0xffffffffffffffe0
 8001eca:	eb 03                	jmp    8001ecf <encoding.utf8.next+0x7f>
 8001ecc:	48 89 df             	mov    rdi,rbx
 8001ecf:	48 8b 0f             	mov    rcx,QWORD PTR [rdi]
 8001ed2:	48 8b 47 10          	mov    rax,QWORD PTR [rdi+0x10]
 8001ed6:	48 39 c1             	cmp    rcx,rax
 8001ed9:	0f 84 46 04 00 00    	je     8002325 <encoding.utf8.next+0x4d5>
 8001edf:	48 8b 57 08          	mov    rdx,QWORD PTR [rdi+0x8]
 8001ee3:	49 89 d4             	mov    r12,rdx
 8001ee6:	49 01 cc             	add    r12,rcx
 8001ee9:	48 39 c1             	cmp    rcx,rax
 8001eec:	72 5f                	jb     8001f4d <encoding.utf8.next+0xfd>
 8001eee:	48 8d 05 5b ea ff 77 	lea    rax,[rip+0x77ffea5b]        # 80000950 <strdata.105>
 8001ef5:	48 89 85 18 ff ff ff 	mov    QWORD PTR [rbp-0xe8],rax
 8001efc:	48 c7 85 20 ff ff ff 	mov    QWORD PTR [rbp-0xe0],0x31
 8001f03:	31 00 00 00 
 8001f07:	48 c7 85 28 ff ff ff 	mov    QWORD PTR [rbp-0xd8],0x31
 8001f0e:	31 00 00 00 
 8001f12:	48 83 ec 20          	sub    rsp,0x20
 8001f16:	48 89 e1             	mov    rcx,rsp
 8001f19:	48 8b 85 28 ff ff ff 	mov    rax,QWORD PTR [rbp-0xd8]
 8001f20:	48 89 41 10          	mov    QWORD PTR [rcx+0x10],rax
 8001f24:	48 8b 85 20 ff ff ff 	mov    rax,QWORD PTR [rbp-0xe0]
 8001f2b:	48 89 41 08          	mov    QWORD PTR [rcx+0x8],rax
 8001f2f:	48 8b 85 18 ff ff ff 	mov    rax,QWORD PTR [rbp-0xe8]
 8001f36:	48 89 01             	mov    QWORD PTR [rcx],rax
 8001f39:	48 89 fb             	mov    rbx,rdi
 8001f3c:	bf 00 00 00 00       	mov    edi,0x0
 8001f41:	e8 79 39 01 00       	call   80158bf <rt.abort_fixed>
 8001f46:	48 89 df             	mov    rdi,rbx
 8001f49:	48 83 ec e0          	sub    rsp,0xffffffffffffffe0
 8001f4d:	48 89 fb             	mov    rbx,rdi
 8001f50:	41 0f b6 3c 24       	movzx  edi,BYTE PTR [r12]
 8001f55:	e8 81 08 00 00       	call   80027db <encoding.utf8.utf8sz>
 8001f5a:	48 89 df             	mov    rdi,rbx
 8001f5d:	48 89 c1             	mov    rcx,rax
 8001f60:	48 89 d0             	mov    rax,rdx
 8001f63:	48 89 8d f0 fe ff ff 	mov    QWORD PTR [rbp-0x110],rcx
 8001f6a:	48 89 85 f8 fe ff ff 	mov    QWORD PTR [rbp-0x108],rax
 8001f71:	8b 85 f0 fe ff ff    	mov    eax,DWORD PTR [rbp-0x110]
 8001f77:	3d 7e e5 8c 67       	cmp    eax,0x678ce57e
 8001f7c:	0f 84 83 00 00 00    	je     8002005 <encoding.utf8.next+0x1b5>
 8001f82:	3d c6 b8 a0 97       	cmp    eax,0x97a0b8c6
 8001f87:	74 66                	je     8001fef <encoding.utf8.next+0x19f>
 8001f89:	48 8d 05 f8 e9 ff 77 	lea    rax,[rip+0x77ffe9f8]        # 80000988 <strdata.133>
 8001f90:	48 89 85 30 ff ff ff 	mov    QWORD PTR [rbp-0xd0],rax
 8001f97:	48 c7 85 38 ff ff ff 	mov    QWORD PTR [rbp-0xc8],0x31
 8001f9e:	31 00 00 00 
 8001fa2:	48 c7 85 40 ff ff ff 	mov    QWORD PTR [rbp-0xc0],0x31
 8001fa9:	31 00 00 00 
 8001fad:	48 83 ec 20          	sub    rsp,0x20
 8001fb1:	48 89 e1             	mov    rcx,rsp
 8001fb4:	48 8b 85 40 ff ff ff 	mov    rax,QWORD PTR [rbp-0xc0]
 8001fbb:	48 89 41 10          	mov    QWORD PTR [rcx+0x10],rax
 8001fbf:	48 8b 85 38 ff ff ff 	mov    rax,QWORD PTR [rbp-0xc8]
 8001fc6:	48 89 41 08          	mov    QWORD PTR [rcx+0x8],rax
 8001fca:	48 8b 85 30 ff ff ff 	mov    rax,QWORD PTR [rbp-0xd0]
 8001fd1:	48 89 01             	mov    QWORD PTR [rcx],rax
 8001fd4:	48 89 fb             	mov    rbx,rdi
 8001fd7:	bf 04 00 00 00       	mov    edi,0x4
 8001fdc:	e8 de 38 01 00       	call   80158bf <rt.abort_fixed>
 8001fe1:	48 89 df             	mov    rdi,rbx
 8001fe4:	48 83 ec e0          	sub    rsp,0xffffffffffffffe0
 8001fe8:	bb 00 00 00 00       	mov    ebx,0x0
 8001fed:	eb 1d                	jmp    800200c <encoding.utf8.next+0x1bc>
 8001fef:	c7 85 d0 fe ff ff b6 	mov    DWORD PTR [rbp-0x130],0xc10bd2b6
 8001ff6:	d2 0b c1 
 8001ff9:	48 8b 85 d0 fe ff ff 	mov    rax,QWORD PTR [rbp-0x130]
 8002000:	e9 31 03 00 00       	jmp    8002336 <encoding.utf8.next+0x4e6>
 8002005:	48 8b 9d f8 fe ff ff 	mov    rbx,QWORD PTR [rbp-0x108]
 800200c:	4c 8b 3f             	mov    r15,QWORD PTR [rdi]
 800200f:	4c 89 f8             	mov    rax,r15
 8002012:	48 01 d8             	add    rax,rbx
 8002015:	4c 8b 77 10          	mov    r14,QWORD PTR [rdi+0x10]
 8002019:	4c 39 f0             	cmp    rax,r14
 800201c:	0f 87 f0 02 00 00    	ja     8002312 <encoding.utf8.next+0x4c2>
 8002022:	48 8b 47 08          	mov    rax,QWORD PTR [rdi+0x8]
 8002026:	48 89 45 f0          	mov    QWORD PTR [rbp-0x10],rax
 800202a:	4d 89 fd             	mov    r13,r15
 800202d:	49 01 dd             	add    r13,rbx
 8002030:	4d 39 f7             	cmp    r15,r14
 8002033:	0f 96 c1             	setbe  cl
 8002036:	0f b6 c9             	movzx  ecx,cl
 8002039:	4d 39 f5             	cmp    r13,r14
 800203c:	0f 96 c2             	setbe  dl
 800203f:	0f b6 d2             	movzx  edx,dl
 8002042:	85 ca                	test   edx,ecx
 8002044:	75 63                	jne    80020a9 <encoding.utf8.next+0x259>
 8002046:	48 8d 05 73 e9 ff 77 	lea    rax,[rip+0x77ffe973]        # 800009c0 <strdata.171>
 800204d:	48 89 85 60 ff ff ff 	mov    QWORD PTR [rbp-0xa0],rax
 8002054:	48 c7 85 68 ff ff ff 	mov    QWORD PTR [rbp-0x98],0x31
 800205b:	31 00 00 00 
 800205f:	48 c7 85 70 ff ff ff 	mov    QWORD PTR [rbp-0x90],0x31
 8002066:	31 00 00 00 
 800206a:	48 83 ec 20          	sub    rsp,0x20
 800206e:	48 89 e1             	mov    rcx,rsp
 8002071:	48 8b 85 70 ff ff ff 	mov    rax,QWORD PTR [rbp-0x90]
 8002078:	48 89 41 10          	mov    QWORD PTR [rcx+0x10],rax
 800207c:	48 8b 85 68 ff ff ff 	mov    rax,QWORD PTR [rbp-0x98]
 8002083:	48 89 41 08          	mov    QWORD PTR [rcx+0x8],rax
 8002087:	48 8b 85 60 ff ff ff 	mov    rax,QWORD PTR [rbp-0xa0]
 800208e:	48 89 01             	mov    QWORD PTR [rcx],rax
 8002091:	49 89 fc             	mov    r12,rdi
 8002094:	bf 00 00 00 00       	mov    edi,0x0
 8002099:	e8 21 38 01 00       	call   80158bf <rt.abort_fixed>
 800209e:	4c 89 e7             	mov    rdi,r12
 80020a1:	48 8b 45 f0          	mov    rax,QWORD PTR [rbp-0x10]
 80020a5:	48 83 ec e0          	sub    rsp,0xffffffffffffffe0
 80020a9:	49 89 c4             	mov    r12,rax
 80020ac:	4d 01 fc             	add    r12,r15
 80020af:	4d 29 fd             	sub    r13,r15
 80020b2:	4c 89 f0             	mov    rax,r14
 80020b5:	4c 29 f8             	sub    rax,r15
 80020b8:	4c 89 a5 48 ff ff ff 	mov    QWORD PTR [rbp-0xb8],r12
 80020bf:	4c 89 ad 50 ff ff ff 	mov    QWORD PTR [rbp-0xb0],r13
 80020c6:	48 89 85 58 ff ff ff 	mov    QWORD PTR [rbp-0xa8],rax
 80020cd:	48 8b 07             	mov    rax,QWORD PTR [rdi]
 80020d0:	48 01 d8             	add    rax,rbx
 80020d3:	48 89 07             	mov    QWORD PTR [rdi],rax
 80020d6:	4d 89 e6             	mov    r14,r12
 80020d9:	49 83 c6 00          	add    r14,0x0
 80020dd:	49 83 fd 00          	cmp    r13,0x0
 80020e1:	77 4d                	ja     8002130 <encoding.utf8.next+0x2e0>
 80020e3:	48 8d 05 0e e9 ff 77 	lea    rax,[rip+0x77ffe90e]        # 800009f8 <strdata.195>
 80020ea:	48 89 85 78 ff ff ff 	mov    QWORD PTR [rbp-0x88],rax
 80020f1:	48 c7 45 80 31 00 00 	mov    QWORD PTR [rbp-0x80],0x31
 80020f8:	00 
 80020f9:	48 c7 45 88 31 00 00 	mov    QWORD PTR [rbp-0x78],0x31
 8002100:	00 
 8002101:	48 83 ec 20          	sub    rsp,0x20
 8002105:	48 89 e1             	mov    rcx,rsp
 8002108:	48 8b 45 88          	mov    rax,QWORD PTR [rbp-0x78]
 800210c:	48 89 41 10          	mov    QWORD PTR [rcx+0x10],rax
 8002110:	48 8b 45 80          	mov    rax,QWORD PTR [rbp-0x80]
 8002114:	48 89 41 08          	mov    QWORD PTR [rcx+0x8],rax
 8002118:	48 8b 85 78 ff ff ff 	mov    rax,QWORD PTR [rbp-0x88]
 800211f:	48 89 01             	mov    QWORD PTR [rcx],rax
 8002122:	bf 00 00 00 00       	mov    edi,0x0
 8002127:	e8 93 37 01 00       	call   80158bf <rt.abort_fixed>
 800212c:	48 83 ec e0          	sub    rsp,0xffffffffffffffe0
 8002130:	41 0f b6 06          	movzx  eax,BYTE PTR [r14]
 8002134:	3d 80 00 00 00       	cmp    eax,0x80
 8002139:	0f 82 5a 01 00 00    	jb     8002299 <encoding.utf8.next+0x449>
 800213f:	48 89 d8             	mov    rax,rbx
 8002142:	48 83 e8 01          	sub    rax,0x1
 8002146:	48 8d 0d 63 ec ff 77 	lea    rcx,[rip+0x77ffec63]        # 80000db0 <encoding.utf8.masks>
 800214d:	48 89 cb             	mov    rbx,rcx
 8002150:	48 01 c3             	add    rbx,rax
 8002153:	48 83 f8 06          	cmp    rax,0x6
 8002157:	72 47                	jb     80021a0 <encoding.utf8.next+0x350>
 8002159:	48 8d 05 08 e9 ff 77 	lea    rax,[rip+0x77ffe908]        # 80000a68 <strdata.227>
 8002160:	48 89 45 a8          	mov    QWORD PTR [rbp-0x58],rax
 8002164:	48 c7 45 b0 31 00 00 	mov    QWORD PTR [rbp-0x50],0x31
 800216b:	00 
 800216c:	48 c7 45 b8 31 00 00 	mov    QWORD PTR [rbp-0x48],0x31
 8002173:	00 
 8002174:	48 83 ec 20          	sub    rsp,0x20
 8002178:	48 89 e1             	mov    rcx,rsp
 800217b:	48 8b 45 b8          	mov    rax,QWORD PTR [rbp-0x48]
 800217f:	48 89 41 10          	mov    QWORD PTR [rcx+0x10],rax
 8002183:	48 8b 45 b0          	mov    rax,QWORD PTR [rbp-0x50]
 8002187:	48 89 41 08          	mov    QWORD PTR [rcx+0x8],rax
 800218b:	48 8b 45 a8          	mov    rax,QWORD PTR [rbp-0x58]
 800218f:	48 89 01             	mov    QWORD PTR [rcx],rax
 8002192:	bf 00 00 00 00       	mov    edi,0x0
 8002197:	e8 23 37 01 00       	call   80158bf <rt.abort_fixed>
 800219c:	48 83 ec e0          	sub    rsp,0xffffffffffffffe0
 80021a0:	0f b6 1b             	movzx  ebx,BYTE PTR [rbx]
 80021a3:	4d 89 e6             	mov    r14,r12
 80021a6:	49 83 c6 00          	add    r14,0x0
 80021aa:	49 83 fd 00          	cmp    r13,0x0
 80021ae:	77 47                	ja     80021f7 <encoding.utf8.next+0x3a7>
 80021b0:	48 8d 05 e9 e8 ff 77 	lea    rax,[rip+0x77ffe8e9]        # 80000aa0 <strdata.240>
 80021b7:	48 89 45 c0          	mov    QWORD PTR [rbp-0x40],rax
 80021bb:	48 c7 45 c8 31 00 00 	mov    QWORD PTR [rbp-0x38],0x31
 80021c2:	00 
 80021c3:	48 c7 45 d0 31 00 00 	mov    QWORD PTR [rbp-0x30],0x31
 80021ca:	00 
 80021cb:	48 83 ec 20          	sub    rsp,0x20
 80021cf:	48 89 e1             	mov    rcx,rsp
 80021d2:	48 8b 45 d0          	mov    rax,QWORD PTR [rbp-0x30]
 80021d6:	48 89 41 10          	mov    QWORD PTR [rcx+0x10],rax
 80021da:	48 8b 45 c8          	mov    rax,QWORD PTR [rbp-0x38]
 80021de:	48 89 41 08          	mov    QWORD PTR [rcx+0x8],rax
 80021e2:	48 8b 45 c0          	mov    rax,QWORD PTR [rbp-0x40]
 80021e6:	48 89 01             	mov    QWORD PTR [rcx],rax
 80021e9:	bf 00 00 00 00       	mov    edi,0x0
 80021ee:	e8 cc 36 01 00       	call   80158bf <rt.abort_fixed>
 80021f3:	48 83 ec e0          	sub    rsp,0xffffffffffffffe0
 80021f7:	41 0f b6 06          	movzx  eax,BYTE PTR [r14]
 80021fb:	21 d8                	and    eax,ebx
 80021fd:	0f b6 c0             	movzx  eax,al
 8002200:	4c 89 eb             	mov    rbx,r13
 8002203:	4d 89 e5             	mov    r13,r12
 8002206:	41 bc 01 00 00 00    	mov    r12d,0x1
 800220c:	49 39 dc             	cmp    r12,rbx
 800220f:	73 6c                	jae    800227d <encoding.utf8.next+0x42d>
 8002211:	41 89 c6             	mov    r14d,eax
 8002214:	41 c1 e6 06          	shl    r14d,0x6
 8002218:	4d 89 ef             	mov    r15,r13
 800221b:	4d 01 e7             	add    r15,r12
 800221e:	49 39 dc             	cmp    r12,rbx
 8002221:	72 47                	jb     800226a <encoding.utf8.next+0x41a>
 8002223:	48 8d 05 ae e8 ff 77 	lea    rax,[rip+0x77ffe8ae]        # 80000ad8 <strdata.267>
 800222a:	48 89 45 d8          	mov    QWORD PTR [rbp-0x28],rax
 800222e:	48 c7 45 e0 31 00 00 	mov    QWORD PTR [rbp-0x20],0x31
 8002235:	00 
 8002236:	48 c7 45 e8 31 00 00 	mov    QWORD PTR [rbp-0x18],0x31
 800223d:	00 
 800223e:	48 83 ec 20          	sub    rsp,0x20
 8002242:	48 89 e1             	mov    rcx,rsp
 8002245:	48 8b 45 e8          	mov    rax,QWORD PTR [rbp-0x18]
 8002249:	48 89 41 10          	mov    QWORD PTR [rcx+0x10],rax
 800224d:	48 8b 45 e0          	mov    rax,QWORD PTR [rbp-0x20]
 8002251:	48 89 41 08          	mov    QWORD PTR [rcx+0x8],rax
 8002255:	48 8b 45 d8          	mov    rax,QWORD PTR [rbp-0x28]
 8002259:	48 89 01             	mov    QWORD PTR [rcx],rax
 800225c:	bf 00 00 00 00       	mov    edi,0x0
 8002261:	e8 59 36 01 00       	call   80158bf <rt.abort_fixed>
 8002266:	48 83 ec e0          	sub    rsp,0xffffffffffffffe0
 800226a:	41 0f b6 07          	movzx  eax,BYTE PTR [r15]
 800226e:	83 e0 3f             	and    eax,0x3f
 8002271:	0f b6 c0             	movzx  eax,al
 8002274:	44 09 f0             	or     eax,r14d
 8002277:	49 83 c4 01          	add    r12,0x1
 800227b:	eb 8f                	jmp    800220c <encoding.utf8.next+0x3bc>
 800227d:	c7 85 e8 fe ff ff e7 	mov    DWORD PTR [rbp-0x118],0x8d8f5fe7
 8002284:	5f 8f 8d 
 8002287:	89 85 ec fe ff ff    	mov    DWORD PTR [rbp-0x114],eax
 800228d:	48 8b 85 e8 fe ff ff 	mov    rax,QWORD PTR [rbp-0x118]
 8002294:	e9 9d 00 00 00       	jmp    8002336 <encoding.utf8.next+0x4e6>
 8002299:	c7 85 e0 fe ff ff e7 	mov    DWORD PTR [rbp-0x120],0x8d8f5fe7
 80022a0:	5f 8f 8d 
 80022a3:	48 8d 85 e0 fe ff ff 	lea    rax,[rbp-0x120]
 80022aa:	48 89 c3             	mov    rbx,rax
 80022ad:	48 83 c3 04          	add    rbx,0x4
 80022b1:	49 83 c4 00          	add    r12,0x0
 80022b5:	49 83 fd 00          	cmp    r13,0x0
 80022b9:	77 47                	ja     8002302 <encoding.utf8.next+0x4b2>
 80022bb:	48 8d 05 6e e7 ff 77 	lea    rax,[rip+0x77ffe76e]        # 80000a30 <strdata.213>
 80022c2:	48 89 45 90          	mov    QWORD PTR [rbp-0x70],rax
 80022c6:	48 c7 45 98 31 00 00 	mov    QWORD PTR [rbp-0x68],0x31
 80022cd:	00 
 80022ce:	48 c7 45 a0 31 00 00 	mov    QWORD PTR [rbp-0x60],0x31
 80022d5:	00 
 80022d6:	48 83 ec 20          	sub    rsp,0x20
 80022da:	48 89 e1             	mov    rcx,rsp
 80022dd:	48 8b 45 a0          	mov    rax,QWORD PTR [rbp-0x60]
 80022e1:	48 89 41 10          	mov    QWORD PTR [rcx+0x10],rax
 80022e5:	48 8b 45 98          	mov    rax,QWORD PTR [rbp-0x68]
 80022e9:	48 89 41 08          	mov    QWORD PTR [rcx+0x8],rax
 80022ed:	48 8b 45 90          	mov    rax,QWORD PTR [rbp-0x70]
 80022f1:	48 89 01             	mov    QWORD PTR [rcx],rax
 80022f4:	bf 00 00 00 00       	mov    edi,0x0
 80022f9:	e8 c1 35 01 00       	call   80158bf <rt.abort_fixed>
 80022fe:	48 83 ec e0          	sub    rsp,0xffffffffffffffe0
 8002302:	41 0f b6 04 24       	movzx  eax,BYTE PTR [r12]
 8002307:	89 03                	mov    DWORD PTR [rbx],eax
 8002309:	48 8b 85 e0 fe ff ff 	mov    rax,QWORD PTR [rbp-0x120]
 8002310:	eb 24                	jmp    8002336 <encoding.utf8.next+0x4e6>
 8002312:	c7 85 d8 fe ff ff dc 	mov    DWORD PTR [rbp-0x128],0x94d120dc
 8002319:	20 d1 94 
 800231c:	48 8b 85 d8 fe ff ff 	mov    rax,QWORD PTR [rbp-0x128]
 8002323:	eb 11                	jmp    8002336 <encoding.utf8.next+0x4e6>
 8002325:	c7 85 c8 fe ff ff c6 	mov    DWORD PTR [rbp-0x138],0x97a0b8c6
 800232c:	b8 a0 97 
 800232f:	48 8b 85 c8 fe ff ff 	mov    rax,QWORD PTR [rbp-0x138]
 8002336:	41 5f                	pop    r15
 8002338:	41 5e                	pop    r14
 800233a:	41 5d                	pop    r13
 800233c:	41 5c                	pop    r12
 800233e:	5b                   	pop    rbx
 800233f:	c9                   	leave  
 8002340:	c3                   	ret    

0000000008002341 <encoding.utf8.prev>:
 8002341:	55                   	push   rbp
 8002342:	48 89 e5             	mov    rbp,rsp
 8002345:	48 81 ec e8 00 00 00 	sub    rsp,0xe8
 800234c:	53                   	push   rbx
 800234d:	41 54                	push   r12
 800234f:	41 55                	push   r13
 8002351:	41 56                	push   r14
 8002353:	41 57                	push   r15
 8002355:	48 8b 07             	mov    rax,QWORD PTR [rdi]
 8002358:	48 83 f8 00          	cmp    rax,0x0
 800235c:	0f 84 76 03 00 00    	je     80026d8 <encoding.utf8.prev+0x397>
 8002362:	bb 00 00 00 00       	mov    ebx,0x0
 8002367:	41 bc 00 00 00 00    	mov    r12d,0x0
 800236d:	48 8b 0f             	mov    rcx,QWORD PTR [rdi]
 8002370:	49 39 cc             	cmp    r12,rcx
 8002373:	0f 83 0d 02 00 00    	jae    8002586 <encoding.utf8.prev+0x245>
 8002379:	48 8b 57 08          	mov    rdx,QWORD PTR [rdi+0x8]
 800237d:	48 8b 47 10          	mov    rax,QWORD PTR [rdi+0x10]
 8002381:	4c 29 e1             	sub    rcx,r12
 8002384:	48 83 e9 01          	sub    rcx,0x1
 8002388:	49 89 d5             	mov    r13,rdx
 800238b:	49 01 cd             	add    r13,rcx
 800238e:	48 39 c1             	cmp    rcx,rax
 8002391:	72 5f                	jb     80023f2 <encoding.utf8.prev+0xb1>
 8002393:	48 8d 05 76 e7 ff 77 	lea    rax,[rip+0x77ffe776]        # 80000b10 <strdata.328>
 800239a:	48 89 85 60 ff ff ff 	mov    QWORD PTR [rbp-0xa0],rax
 80023a1:	48 c7 85 68 ff ff ff 	mov    QWORD PTR [rbp-0x98],0x31
 80023a8:	31 00 00 00 
 80023ac:	48 c7 85 70 ff ff ff 	mov    QWORD PTR [rbp-0x90],0x31
 80023b3:	31 00 00 00 
 80023b7:	48 83 ec 20          	sub    rsp,0x20
 80023bb:	48 89 e1             	mov    rcx,rsp
 80023be:	48 8b 85 70 ff ff ff 	mov    rax,QWORD PTR [rbp-0x90]
 80023c5:	48 89 41 10          	mov    QWORD PTR [rcx+0x10],rax
 80023c9:	48 8b 85 68 ff ff ff 	mov    rax,QWORD PTR [rbp-0x98]
 80023d0:	48 89 41 08          	mov    QWORD PTR [rcx+0x8],rax
 80023d4:	48 8b 85 60 ff ff ff 	mov    rax,QWORD PTR [rbp-0xa0]
 80023db:	48 89 01             	mov    QWORD PTR [rcx],rax
 80023de:	49 89 fe             	mov    r14,rdi
 80023e1:	bf 00 00 00 00       	mov    edi,0x0
 80023e6:	e8 d4 34 01 00       	call   80158bf <rt.abort_fixed>
 80023eb:	4c 89 f7             	mov    rdi,r14
 80023ee:	48 83 ec e0          	sub    rsp,0xffffffffffffffe0
 80023f2:	41 0f b6 45 00       	movzx  eax,BYTE PTR [r13+0x0]
 80023f7:	25 c0 00 00 00       	and    eax,0xc0
 80023fc:	0f b6 c0             	movzx  eax,al
 80023ff:	3d 80 00 00 00       	cmp    eax,0x80
 8002404:	0f 85 8c 00 00 00    	jne    8002496 <encoding.utf8.prev+0x155>
 800240a:	48 8b 57 08          	mov    rdx,QWORD PTR [rdi+0x8]
 800240e:	48 8b 47 10          	mov    rax,QWORD PTR [rdi+0x10]
 8002412:	48 8b 0f             	mov    rcx,QWORD PTR [rdi]
 8002415:	4c 29 e1             	sub    rcx,r12
 8002418:	48 83 e9 01          	sub    rcx,0x1
 800241c:	49 89 d5             	mov    r13,rdx
 800241f:	49 01 cd             	add    r13,rcx
 8002422:	48 39 c1             	cmp    rcx,rax
 8002425:	72 53                	jb     800247a <encoding.utf8.prev+0x139>
 8002427:	48 8d 05 1a e7 ff 77 	lea    rax,[rip+0x77ffe71a]        # 80000b48 <strdata.353>
 800242e:	48 89 85 78 ff ff ff 	mov    QWORD PTR [rbp-0x88],rax
 8002435:	48 c7 45 80 31 00 00 	mov    QWORD PTR [rbp-0x80],0x31
 800243c:	00 
 800243d:	48 c7 45 88 31 00 00 	mov    QWORD PTR [rbp-0x78],0x31
 8002444:	00 
 8002445:	48 83 ec 20          	sub    rsp,0x20
 8002449:	48 89 e1             	mov    rcx,rsp
 800244c:	48 8b 45 88          	mov    rax,QWORD PTR [rbp-0x78]
 8002450:	48 89 41 10          	mov    QWORD PTR [rcx+0x10],rax
 8002454:	48 8b 45 80          	mov    rax,QWORD PTR [rbp-0x80]
 8002458:	48 89 41 08          	mov    QWORD PTR [rcx+0x8],rax
 800245c:	48 8b 85 78 ff ff ff 	mov    rax,QWORD PTR [rbp-0x88]
 8002463:	48 89 01             	mov    QWORD PTR [rcx],rax
 8002466:	49 89 fe             	mov    r14,rdi
 8002469:	bf 00 00 00 00       	mov    edi,0x0
 800246e:	e8 4c 34 01 00       	call   80158bf <rt.abort_fixed>
 8002473:	4c 89 f7             	mov    rdi,r14
 8002476:	48 83 ec e0          	sub    rsp,0xffffffffffffffe0
 800247a:	41 0f b6 45 00       	movzx  eax,BYTE PTR [r13+0x0]
 800247f:	83 e0 3f             	and    eax,0x3f
 8002482:	0f b6 c0             	movzx  eax,al
 8002485:	49 6b cc 06          	imul   rcx,r12,0x6
 8002489:	d3 e0                	shl    eax,cl
 800248b:	09 c3                	or     ebx,eax
 800248d:	49 83 c4 01          	add    r12,0x1
 8002491:	e9 d7 fe ff ff       	jmp    800236d <encoding.utf8.prev+0x2c>
 8002496:	4d 89 e5             	mov    r13,r12
 8002499:	4d 89 ec             	mov    r12,r13
 800249c:	49 83 c4 01          	add    r12,0x1
 80024a0:	48 8b 57 08          	mov    rdx,QWORD PTR [rdi+0x8]
 80024a4:	48 8b 47 10          	mov    rax,QWORD PTR [rdi+0x10]
 80024a8:	48 8b 0f             	mov    rcx,QWORD PTR [rdi]
 80024ab:	4c 29 e9             	sub    rcx,r13
 80024ae:	48 83 e9 01          	sub    rcx,0x1
 80024b2:	49 89 d6             	mov    r14,rdx
 80024b5:	49 01 ce             	add    r14,rcx
 80024b8:	48 39 c1             	cmp    rcx,rax
 80024bb:	72 4d                	jb     800250a <encoding.utf8.prev+0x1c9>
 80024bd:	48 8d 05 bc e6 ff 77 	lea    rax,[rip+0x77ffe6bc]        # 80000b80 <strdata.385>
 80024c4:	48 89 45 90          	mov    QWORD PTR [rbp-0x70],rax
 80024c8:	48 c7 45 98 31 00 00 	mov    QWORD PTR [rbp-0x68],0x31
 80024cf:	00 
 80024d0:	48 c7 45 a0 31 00 00 	mov    QWORD PTR [rbp-0x60],0x31
 80024d7:	00 
 80024d8:	48 83 ec 20          	sub    rsp,0x20
 80024dc:	48 89 e1             	mov    rcx,rsp
 80024df:	48 8b 45 a0          	mov    rax,QWORD PTR [rbp-0x60]
 80024e3:	48 89 41 10          	mov    QWORD PTR [rcx+0x10],rax
 80024e7:	48 8b 45 98          	mov    rax,QWORD PTR [rbp-0x68]
 80024eb:	48 89 41 08          	mov    QWORD PTR [rcx+0x8],rax
 80024ef:	48 8b 45 90          	mov    rax,QWORD PTR [rbp-0x70]
 80024f3:	48 89 01             	mov    QWORD PTR [rcx],rax
 80024f6:	49 89 ff             	mov    r15,rdi
 80024f9:	bf 00 00 00 00       	mov    edi,0x0
 80024fe:	e8 bc 33 01 00       	call   80158bf <rt.abort_fixed>
 8002503:	4c 89 ff             	mov    rdi,r15
 8002506:	48 83 ec e0          	sub    rsp,0xffffffffffffffe0
 800250a:	45 0f b6 36          	movzx  r14d,BYTE PTR [r14]
 800250e:	48 8d 05 9b e8 ff 77 	lea    rax,[rip+0x77ffe89b]        # 80000db0 <encoding.utf8.masks>
 8002515:	4c 01 e8             	add    rax,r13
 8002518:	48 89 45 f0          	mov    QWORD PTR [rbp-0x10],rax
 800251c:	49 83 fd 06          	cmp    r13,0x6
 8002520:	72 51                	jb     8002573 <encoding.utf8.prev+0x232>
 8002522:	48 8d 05 8f e6 ff 77 	lea    rax,[rip+0x77ffe68f]        # 80000bb8 <strdata.394>
 8002529:	48 89 45 a8          	mov    QWORD PTR [rbp-0x58],rax
 800252d:	48 c7 45 b0 31 00 00 	mov    QWORD PTR [rbp-0x50],0x31
 8002534:	00 
 8002535:	48 c7 45 b8 31 00 00 	mov    QWORD PTR [rbp-0x48],0x31
 800253c:	00 
 800253d:	48 83 ec 20          	sub    rsp,0x20
 8002541:	48 89 e1             	mov    rcx,rsp
 8002544:	48 8b 45 b8          	mov    rax,QWORD PTR [rbp-0x48]
 8002548:	48 89 41 10          	mov    QWORD PTR [rcx+0x10],rax
 800254c:	48 8b 45 b0          	mov    rax,QWORD PTR [rbp-0x50]
 8002550:	48 89 41 08          	mov    QWORD PTR [rcx+0x8],rax
 8002554:	48 8b 45 a8          	mov    rax,QWORD PTR [rbp-0x58]
 8002558:	48 89 01             	mov    QWORD PTR [rcx],rax
 800255b:	49 89 ff             	mov    r15,rdi
 800255e:	bf 00 00 00 00       	mov    edi,0x0
 8002563:	e8 57 33 01 00       	call   80158bf <rt.abort_fixed>
 8002568:	4c 89 ff             	mov    rdi,r15
 800256b:	48 8b 45 f0          	mov    rax,QWORD PTR [rbp-0x10]
 800256f:	48 83 ec e0          	sub    rsp,0xffffffffffffffe0
 8002573:	0f b6 00             	movzx  eax,BYTE PTR [rax]
 8002576:	44 21 f0             	and    eax,r14d
 8002579:	0f b6 c0             	movzx  eax,al
 800257c:	49 6b cd 06          	imul   rcx,r13,0x6
 8002580:	d3 e0                	shl    eax,cl
 8002582:	09 c3                	or     ebx,eax
 8002584:	eb 06                	jmp    800258c <encoding.utf8.prev+0x24b>
 8002586:	41 bc 00 00 00 00    	mov    r12d,0x0
 800258c:	49 83 fc 00          	cmp    r12,0x0
 8002590:	0f 84 2f 01 00 00    	je     80026c5 <encoding.utf8.prev+0x384>
 8002596:	48 8b 07             	mov    rax,QWORD PTR [rdi]
 8002599:	48 89 c1             	mov    rcx,rax
 800259c:	4c 29 e1             	sub    rcx,r12
 800259f:	48 89 0f             	mov    QWORD PTR [rdi],rcx
 80025a2:	48 8b 57 08          	mov    rdx,QWORD PTR [rdi+0x8]
 80025a6:	48 8b 47 10          	mov    rax,QWORD PTR [rdi+0x10]
 80025aa:	49 89 d5             	mov    r13,rdx
 80025ad:	49 01 cd             	add    r13,rcx
 80025b0:	48 39 c1             	cmp    rcx,rax
 80025b3:	72 47                	jb     80025fc <encoding.utf8.prev+0x2bb>
 80025b5:	48 8d 05 34 e6 ff 77 	lea    rax,[rip+0x77ffe634]        # 80000bf0 <strdata.433>
 80025bc:	48 89 45 c0          	mov    QWORD PTR [rbp-0x40],rax
 80025c0:	48 c7 45 c8 31 00 00 	mov    QWORD PTR [rbp-0x38],0x31
 80025c7:	00 
 80025c8:	48 c7 45 d0 31 00 00 	mov    QWORD PTR [rbp-0x30],0x31
 80025cf:	00 
 80025d0:	48 83 ec 20          	sub    rsp,0x20
 80025d4:	48 89 e1             	mov    rcx,rsp
 80025d7:	48 8b 45 d0          	mov    rax,QWORD PTR [rbp-0x30]
 80025db:	48 89 41 10          	mov    QWORD PTR [rcx+0x10],rax
 80025df:	48 8b 45 c8          	mov    rax,QWORD PTR [rbp-0x38]
 80025e3:	48 89 41 08          	mov    QWORD PTR [rcx+0x8],rax
 80025e7:	48 8b 45 c0          	mov    rax,QWORD PTR [rbp-0x40]
 80025eb:	48 89 01             	mov    QWORD PTR [rcx],rax
 80025ee:	bf 00 00 00 00       	mov    edi,0x0
 80025f3:	e8 c7 32 01 00       	call   80158bf <rt.abort_fixed>
 80025f8:	48 83 ec e0          	sub    rsp,0xffffffffffffffe0
 80025fc:	41 0f b6 7d 00       	movzx  edi,BYTE PTR [r13+0x0]
 8002601:	e8 d5 01 00 00       	call   80027db <encoding.utf8.utf8sz>
 8002606:	48 89 c1             	mov    rcx,rax
 8002609:	48 89 d0             	mov    rax,rdx
 800260c:	48 89 8d 50 ff ff ff 	mov    QWORD PTR [rbp-0xb0],rcx
 8002613:	48 89 85 58 ff ff ff 	mov    QWORD PTR [rbp-0xa8],rax
 800261a:	8b 85 50 ff ff ff    	mov    eax,DWORD PTR [rbp-0xb0]
 8002620:	3d 7e e5 8c 67       	cmp    eax,0x678ce57e
 8002625:	74 63                	je     800268a <encoding.utf8.prev+0x349>
 8002627:	3d c6 b8 a0 97       	cmp    eax,0x97a0b8c6
 800262c:	74 49                	je     8002677 <encoding.utf8.prev+0x336>
 800262e:	48 8d 05 f3 e5 ff 77 	lea    rax,[rip+0x77ffe5f3]        # 80000c28 <strdata.472>
 8002635:	48 89 45 d8          	mov    QWORD PTR [rbp-0x28],rax
 8002639:	48 c7 45 e0 31 00 00 	mov    QWORD PTR [rbp-0x20],0x31
 8002640:	00 
 8002641:	48 c7 45 e8 31 00 00 	mov    QWORD PTR [rbp-0x18],0x31
 8002648:	00 
 8002649:	48 83 ec 20          	sub    rsp,0x20
 800264d:	48 89 e1             	mov    rcx,rsp
 8002650:	48 8b 45 e8          	mov    rax,QWORD PTR [rbp-0x18]
 8002654:	48 89 41 10          	mov    QWORD PTR [rcx+0x10],rax
 8002658:	48 8b 45 e0          	mov    rax,QWORD PTR [rbp-0x20]
 800265c:	48 89 41 08          	mov    QWORD PTR [rcx+0x8],rax
 8002660:	48 8b 45 d8          	mov    rax,QWORD PTR [rbp-0x28]
 8002664:	48 89 01             	mov    QWORD PTR [rcx],rax
 8002667:	bf 04 00 00 00       	mov    edi,0x4
 800266c:	e8 4e 32 01 00       	call   80158bf <rt.abort_fixed>
 8002671:	48 83 ec e0          	sub    rsp,0xffffffffffffffe0
 8002675:	eb 72                	jmp    80026e9 <encoding.utf8.prev+0x3a8>
 8002677:	c7 85 48 ff ff ff b6 	mov    DWORD PTR [rbp-0xb8],0xc10bd2b6
 800267e:	d2 0b c1 
 8002681:	48 8b 85 48 ff ff ff 	mov    rax,QWORD PTR [rbp-0xb8]
 8002688:	eb 5f                	jmp    80026e9 <encoding.utf8.prev+0x3a8>
 800268a:	48 8b 85 58 ff ff ff 	mov    rax,QWORD PTR [rbp-0xa8]
 8002691:	49 39 c4             	cmp    r12,rax
 8002694:	74 13                	je     80026a9 <encoding.utf8.prev+0x368>
 8002696:	c7 85 40 ff ff ff b6 	mov    DWORD PTR [rbp-0xc0],0xc10bd2b6
 800269d:	d2 0b c1 
 80026a0:	48 8d 85 40 ff ff ff 	lea    rax,[rbp-0xc0]
 80026a7:	eb 17                	jmp    80026c0 <encoding.utf8.prev+0x37f>
 80026a9:	c7 85 38 ff ff ff e7 	mov    DWORD PTR [rbp-0xc8],0x8d8f5fe7
 80026b0:	5f 8f 8d 
 80026b3:	89 9d 3c ff ff ff    	mov    DWORD PTR [rbp-0xc4],ebx
 80026b9:	48 8d 85 38 ff ff ff 	lea    rax,[rbp-0xc8]
 80026c0:	48 8b 00             	mov    rax,QWORD PTR [rax]
 80026c3:	eb 24                	jmp    80026e9 <encoding.utf8.prev+0x3a8>
 80026c5:	c7 85 30 ff ff ff dc 	mov    DWORD PTR [rbp-0xd0],0x94d120dc
 80026cc:	20 d1 94 
 80026cf:	48 8b 85 30 ff ff ff 	mov    rax,QWORD PTR [rbp-0xd0]
 80026d6:	eb 11                	jmp    80026e9 <encoding.utf8.prev+0x3a8>
 80026d8:	c7 85 28 ff ff ff c6 	mov    DWORD PTR [rbp-0xd8],0x97a0b8c6
 80026df:	b8 a0 97 
 80026e2:	48 8b 85 28 ff ff ff 	mov    rax,QWORD PTR [rbp-0xd8]
 80026e9:	41 5f                	pop    r15
 80026eb:	41 5e                	pop    r14
 80026ed:	41 5d                	pop    r13
 80026ef:	41 5c                	pop    r12
 80026f1:	5b                   	pop    rbx
 80026f2:	c9                   	leave  
 80026f3:	c3                   	ret    

00000000080026f4 <encoding.utf8.valid>:
 80026f4:	55                   	push   rbp
 80026f5:	48 89 e5             	mov    rbp,rsp
 80026f8:	48 81 ec 80 00 00 00 	sub    rsp,0x80
 80026ff:	48 83 ec 20          	sub    rsp,0x20
 8002703:	48 89 e1             	mov    rcx,rsp
 8002706:	48 8b 45 28          	mov    rax,QWORD PTR [rbp+0x28]
 800270a:	48 89 41 18          	mov    QWORD PTR [rcx+0x18],rax
 800270e:	48 8b 45 20          	mov    rax,QWORD PTR [rbp+0x20]
 8002712:	48 89 41 10          	mov    QWORD PTR [rcx+0x10],rax
 8002716:	48 8b 45 18          	mov    rax,QWORD PTR [rbp+0x18]
 800271a:	48 89 41 08          	mov    QWORD PTR [rcx+0x8],rax
 800271e:	48 8b 45 10          	mov    rax,QWORD PTR [rbp+0x10]
 8002722:	48 89 01             	mov    QWORD PTR [rcx],rax
 8002725:	48 8d 7d 90          	lea    rdi,[rbp-0x70]
 8002729:	e8 a9 f5 ff ff       	call   8001cd7 <encoding.utf8.decode>
 800272e:	48 83 ec e0          	sub    rsp,0xffffffffffffffe0
 8002732:	48 8b 08             	mov    rcx,QWORD PTR [rax]
 8002735:	48 89 4d b0          	mov    QWORD PTR [rbp-0x50],rcx
 8002739:	48 8b 48 08          	mov    rcx,QWORD PTR [rax+0x8]
 800273d:	48 89 4d b8          	mov    QWORD PTR [rbp-0x48],rcx
 8002741:	48 8b 48 10          	mov    rcx,QWORD PTR [rax+0x10]
 8002745:	48 89 4d c0          	mov    QWORD PTR [rbp-0x40],rcx
 8002749:	48 8b 40 18          	mov    rax,QWORD PTR [rax+0x18]
 800274d:	48 89 45 c8          	mov    QWORD PTR [rbp-0x38],rax
 8002751:	48 8d 7d b0          	lea    rdi,[rbp-0x50]
 8002755:	e8 f6 f6 ff ff       	call   8001e50 <encoding.utf8.next>
 800275a:	48 89 45 88          	mov    QWORD PTR [rbp-0x78],rax
 800275e:	8b 45 88             	mov    eax,DWORD PTR [rbp-0x78]
 8002761:	3d c6 b8 a0 97       	cmp    eax,0x97a0b8c6
 8002766:	74 6c                	je     80027d4 <encoding.utf8.valid+0xe0>
 8002768:	3d b6 d2 0b c1       	cmp    eax,0xc10bd2b6
 800276d:	74 5e                	je     80027cd <encoding.utf8.valid+0xd9>
 800276f:	3d dc 20 d1 94       	cmp    eax,0x94d120dc
 8002774:	74 50                	je     80027c6 <encoding.utf8.valid+0xd2>
 8002776:	3d e7 5f 8f 8d       	cmp    eax,0x8d8f5fe7
 800277b:	74 d4                	je     8002751 <encoding.utf8.valid+0x5d>
 800277d:	48 8d 05 dc e4 ff 77 	lea    rax,[rip+0x77ffe4dc]        # 80000c60 <strdata.527>
 8002784:	48 89 45 d0          	mov    QWORD PTR [rbp-0x30],rax
 8002788:	48 c7 45 d8 32 00 00 	mov    QWORD PTR [rbp-0x28],0x32
 800278f:	00 
 8002790:	48 c7 45 e0 32 00 00 	mov    QWORD PTR [rbp-0x20],0x32
 8002797:	00 
 8002798:	48 83 ec 20          	sub    rsp,0x20
 800279c:	48 89 e1             	mov    rcx,rsp
 800279f:	48 8b 45 e0          	mov    rax,QWORD PTR [rbp-0x20]
 80027a3:	48 89 41 10          	mov    QWORD PTR [rcx+0x10],rax
 80027a7:	48 8b 45 d8          	mov    rax,QWORD PTR [rbp-0x28]
 80027ab:	48 89 41 08          	mov    QWORD PTR [rcx+0x8],rax
 80027af:	48 8b 45 d0          	mov    rax,QWORD PTR [rbp-0x30]
 80027b3:	48 89 01             	mov    QWORD PTR [rcx],rax
 80027b6:	bf 04 00 00 00       	mov    edi,0x4
 80027bb:	e8 ff 30 01 00       	call   80158bf <rt.abort_fixed>
 80027c0:	48 83 ec e0          	sub    rsp,0xffffffffffffffe0
 80027c4:	eb 8b                	jmp    8002751 <encoding.utf8.valid+0x5d>
 80027c6:	b8 00 00 00 00       	mov    eax,0x0
 80027cb:	eb 0c                	jmp    80027d9 <encoding.utf8.valid+0xe5>
 80027cd:	b8 00 00 00 00       	mov    eax,0x0
 80027d2:	eb 05                	jmp    80027d9 <encoding.utf8.valid+0xe5>
 80027d4:	b8 01 00 00 00       	mov    eax,0x1
 80027d9:	c9                   	leave  
 80027da:	c3                   	ret    

00000000080027db <encoding.utf8.utf8sz>:
 80027db:	55                   	push   rbp
 80027dc:	48 89 e5             	mov    rbp,rsp
 80027df:	48 83 ec 70          	sub    rsp,0x70
 80027e3:	53                   	push   rbx
 80027e4:	41 54                	push   r12
 80027e6:	41 55                	push   r13
 80027e8:	41 56                	push   r14
 80027ea:	c7 45 98 c6 b8 a0 97 	mov    DWORD PTR [rbp-0x68],0x97a0b8c6
 80027f1:	bb 00 00 00 00       	mov    ebx,0x0
 80027f6:	48 83 fb 06          	cmp    rbx,0x6
 80027fa:	0f 83 6f 01 00 00    	jae    800296f <encoding.utf8.utf8sz+0x194>
 8002800:	44 0f b6 e7          	movzx  r12d,dil
 8002804:	48 6b cb 10          	imul   rcx,rbx,0x10
 8002808:	48 8d 05 a9 e5 ff 77 	lea    rax,[rip+0x77ffe5a9]        # 80000db8 <encoding.utf8.sizes>
 800280f:	49 89 c5             	mov    r13,rax
 8002812:	49 01 cd             	add    r13,rcx
 8002815:	48 83 fb 06          	cmp    rbx,0x6
 8002819:	72 4d                	jb     8002868 <encoding.utf8.utf8sz+0x8d>
 800281b:	48 8d 05 76 e4 ff 77 	lea    rax,[rip+0x77ffe476]        # 80000c98 <strdata.562>
 8002822:	48 89 45 a8          	mov    QWORD PTR [rbp-0x58],rax
 8002826:	48 c7 45 b0 32 00 00 	mov    QWORD PTR [rbp-0x50],0x32
 800282d:	00 
 800282e:	48 c7 45 b8 32 00 00 	mov    QWORD PTR [rbp-0x48],0x32
 8002835:	00 
 8002836:	48 83 ec 20          	sub    rsp,0x20
 800283a:	48 89 e1             	mov    rcx,rsp
 800283d:	48 8b 45 b8          	mov    rax,QWORD PTR [rbp-0x48]
 8002841:	48 89 41 10          	mov    QWORD PTR [rcx+0x10],rax
 8002845:	48 8b 45 b0          	mov    rax,QWORD PTR [rbp-0x50]
 8002849:	48 89 41 08          	mov    QWORD PTR [rcx+0x8],rax
 800284d:	48 8b 45 a8          	mov    rax,QWORD PTR [rbp-0x58]
 8002851:	48 89 01             	mov    QWORD PTR [rcx],rax
 8002854:	41 89 fe             	mov    r14d,edi
 8002857:	bf 00 00 00 00       	mov    edi,0x0
 800285c:	e8 5e 30 01 00       	call   80158bf <rt.abort_fixed>
 8002861:	44 89 f7             	mov    edi,r14d
 8002864:	48 83 ec e0          	sub    rsp,0xffffffffffffffe0
 8002868:	41 0f b6 45 00       	movzx  eax,BYTE PTR [r13+0x0]
 800286d:	41 21 c4             	and    r12d,eax
 8002870:	48 6b cb 10          	imul   rcx,rbx,0x10
 8002874:	48 8d 05 3d e5 ff 77 	lea    rax,[rip+0x77ffe53d]        # 80000db8 <encoding.utf8.sizes>
 800287b:	49 89 c5             	mov    r13,rax
 800287e:	49 01 cd             	add    r13,rcx
 8002881:	48 83 fb 06          	cmp    rbx,0x6
 8002885:	72 4d                	jb     80028d4 <encoding.utf8.utf8sz+0xf9>
 8002887:	48 8d 05 42 e4 ff 77 	lea    rax,[rip+0x77ffe442]        # 80000cd0 <strdata.572>
 800288e:	48 89 45 c0          	mov    QWORD PTR [rbp-0x40],rax
 8002892:	48 c7 45 c8 32 00 00 	mov    QWORD PTR [rbp-0x38],0x32
 8002899:	00 
 800289a:	48 c7 45 d0 32 00 00 	mov    QWORD PTR [rbp-0x30],0x32
 80028a1:	00 
 80028a2:	48 83 ec 20          	sub    rsp,0x20
 80028a6:	48 89 e1             	mov    rcx,rsp
 80028a9:	48 8b 45 d0          	mov    rax,QWORD PTR [rbp-0x30]
 80028ad:	48 89 41 10          	mov    QWORD PTR [rcx+0x10],rax
 80028b1:	48 8b 45 c8          	mov    rax,QWORD PTR [rbp-0x38]
 80028b5:	48 89 41 08          	mov    QWORD PTR [rcx+0x8],rax
 80028b9:	48 8b 45 c0          	mov    rax,QWORD PTR [rbp-0x40]
 80028bd:	48 89 01             	mov    QWORD PTR [rcx],rax
 80028c0:	41 89 fe             	mov    r14d,edi
 80028c3:	bf 00 00 00 00       	mov    edi,0x0
 80028c8:	e8 f2 2f 01 00       	call   80158bf <rt.abort_fixed>
 80028cd:	44 89 f7             	mov    edi,r14d
 80028d0:	48 83 ec e0          	sub    rsp,0xffffffffffffffe0
 80028d4:	41 0f b6 45 01       	movzx  eax,BYTE PTR [r13+0x1]
 80028d9:	41 0f b6 cc          	movzx  ecx,r12b
 80028dd:	39 c1                	cmp    ecx,eax
 80028df:	74 09                	je     80028ea <encoding.utf8.utf8sz+0x10f>
 80028e1:	48 83 c3 01          	add    rbx,0x1
 80028e5:	e9 0c ff ff ff       	jmp    80027f6 <encoding.utf8.utf8sz+0x1b>
 80028ea:	49 89 dd             	mov    r13,rbx
 80028ed:	c7 45 d8 7e e5 8c 67 	mov    DWORD PTR [rbp-0x28],0x678ce57e
 80028f4:	48 8d 45 d8          	lea    rax,[rbp-0x28]
 80028f8:	48 89 c3             	mov    rbx,rax
 80028fb:	48 83 c3 08          	add    rbx,0x8
 80028ff:	49 6b cd 10          	imul   rcx,r13,0x10
 8002903:	48 8d 05 ae e4 ff 77 	lea    rax,[rip+0x77ffe4ae]        # 80000db8 <encoding.utf8.sizes>
 800290a:	49 89 c4             	mov    r12,rax
 800290d:	49 01 cc             	add    r12,rcx
 8002910:	49 83 fd 06          	cmp    r13,0x6
 8002914:	72 47                	jb     800295d <encoding.utf8.utf8sz+0x182>
 8002916:	48 8d 05 eb e3 ff 77 	lea    rax,[rip+0x77ffe3eb]        # 80000d08 <strdata.588>
 800291d:	48 89 45 e8          	mov    QWORD PTR [rbp-0x18],rax
 8002921:	48 c7 45 f0 32 00 00 	mov    QWORD PTR [rbp-0x10],0x32
 8002928:	00 
 8002929:	48 c7 45 f8 32 00 00 	mov    QWORD PTR [rbp-0x8],0x32
 8002930:	00 
 8002931:	48 83 ec 20          	sub    rsp,0x20
 8002935:	48 89 e1             	mov    rcx,rsp
 8002938:	48 8b 45 f8          	mov    rax,QWORD PTR [rbp-0x8]
 800293c:	48 89 41 10          	mov    QWORD PTR [rcx+0x10],rax
 8002940:	48 8b 45 f0          	mov    rax,QWORD PTR [rbp-0x10]
 8002944:	48 89 41 08          	mov    QWORD PTR [rcx+0x8],rax
 8002948:	48 8b 45 e8          	mov    rax,QWORD PTR [rbp-0x18]
 800294c:	48 89 01             	mov    QWORD PTR [rcx],rax
 800294f:	bf 00 00 00 00       	mov    edi,0x0
 8002954:	e8 66 2f 01 00       	call   80158bf <rt.abort_fixed>
 8002959:	48 83 ec e0          	sub    rsp,0xffffffffffffffe0
 800295d:	49 8b 44 24 08       	mov    rax,QWORD PTR [r12+0x8]
 8002962:	48 89 03             	mov    QWORD PTR [rbx],rax
 8002965:	48 8b 45 d8          	mov    rax,QWORD PTR [rbp-0x28]
 8002969:	48 8b 55 e0          	mov    rdx,QWORD PTR [rbp-0x20]
 800296d:	eb 08                	jmp    8002977 <encoding.utf8.utf8sz+0x19c>
 800296f:	48 8b 45 98          	mov    rax,QWORD PTR [rbp-0x68]
 8002973:	48 8b 55 a0          	mov    rdx,QWORD PTR [rbp-0x60]
 8002977:	41 5e                	pop    r14
 8002979:	41 5d                	pop    r13
 800297b:	41 5c                	pop    r12
 800297d:	5b                   	pop    rbx
 800297e:	c9                   	leave  
 800297f:	c3                   	ret    

0000000008002980 <encoding.utf8.encoderune>:
 8002980:	55                   	push   rbp
 8002981:	48 89 e5             	mov    rbp,rsp
 8002984:	48 83 ec 78          	sub    rsp,0x78
 8002988:	53                   	push   rbx
 8002989:	41 54                	push   r12
 800298b:	41 55                	push   r13
 800298d:	41 56                	push   r14
 800298f:	41 57                	push   r15
 8002991:	41 89 f7             	mov    r15d,esi
 8002994:	48 89 f8             	mov    rax,rdi
 8002997:	41 81 ff 80 00 00 00 	cmp    r15d,0x80
 800299e:	72 3c                	jb     80029dc <encoding.utf8.encoderune+0x5c>
 80029a0:	41 81 ff 00 08 00 00 	cmp    r15d,0x800
 80029a7:	72 23                	jb     80029cc <encoding.utf8.encoderune+0x4c>
 80029a9:	41 81 ff 00 00 01 00 	cmp    r15d,0x10000
 80029b0:	72 0d                	jb     80029bf <encoding.utf8.encoderune+0x3f>
 80029b2:	41 bc 04 00 00 00    	mov    r12d,0x4
 80029b8:	b9 f0 00 00 00       	mov    ecx,0xf0
 80029bd:	eb 18                	jmp    80029d7 <encoding.utf8.encoderune+0x57>
 80029bf:	41 bc 03 00 00 00    	mov    r12d,0x3
 80029c5:	b9 e0 00 00 00       	mov    ecx,0xe0
 80029ca:	eb 0b                	jmp    80029d7 <encoding.utf8.encoderune+0x57>
 80029cc:	41 bc 02 00 00 00    	mov    r12d,0x2
 80029d2:	b9 c0 00 00 00       	mov    ecx,0xc0
 80029d7:	89 4d f0             	mov    DWORD PTR [rbp-0x10],ecx
 80029da:	eb 0d                	jmp    80029e9 <encoding.utf8.encoderune+0x69>
 80029dc:	41 bc 01 00 00 00    	mov    r12d,0x1
 80029e2:	c7 45 f0 00 00 00 00 	mov    DWORD PTR [rbp-0x10],0x0
 80029e9:	4c 89 e3             	mov    rbx,r12
 80029ec:	48 83 eb 01          	sub    rbx,0x1
 80029f0:	48 89 c7             	mov    rdi,rax
 80029f3:	48 83 fb 00          	cmp    rbx,0x0
 80029f7:	0f 86 85 00 00 00    	jbe    8002a82 <encoding.utf8.encoderune+0x102>
 80029fd:	48 8d 05 b4 24 00 78 	lea    rax,[rip+0x780024b4]        # 80004eb8 <__fini_array_end>
 8002a04:	49 89 c5             	mov    r13,rax
 8002a07:	49 01 dd             	add    r13,rbx
 8002a0a:	48 83 fb 06          	cmp    rbx,0x6
 8002a0e:	72 52                	jb     8002a62 <encoding.utf8.encoderune+0xe2>
 8002a10:	48 8d 05 29 e3 ff 77 	lea    rax,[rip+0x77ffe329]        # 80000d40 <strdata.646>
 8002a17:	48 89 45 90          	mov    QWORD PTR [rbp-0x70],rax
 8002a1b:	48 c7 45 98 31 00 00 	mov    QWORD PTR [rbp-0x68],0x31
 8002a22:	00 
 8002a23:	48 c7 45 a0 31 00 00 	mov    QWORD PTR [rbp-0x60],0x31
 8002a2a:	00 
 8002a2b:	48 83 ec 20          	sub    rsp,0x20
 8002a2f:	48 89 e1             	mov    rcx,rsp
 8002a32:	48 8b 45 a0          	mov    rax,QWORD PTR [rbp-0x60]
 8002a36:	48 89 41 10          	mov    QWORD PTR [rcx+0x10],rax
 8002a3a:	48 8b 45 98          	mov    rax,QWORD PTR [rbp-0x68]
 8002a3e:	48 89 41 08          	mov    QWORD PTR [rcx+0x8],rax
 8002a42:	48 8b 45 90          	mov    rax,QWORD PTR [rbp-0x70]
 8002a46:	48 89 01             	mov    QWORD PTR [rcx],rax
 8002a49:	49 89 fe             	mov    r14,rdi
 8002a4c:	bf 00 00 00 00       	mov    edi,0x0
 8002a51:	e8 69 2e 01 00       	call   80158bf <rt.abort_fixed>
 8002a56:	44 89 fe             	mov    esi,r15d
 8002a59:	4c 89 f7             	mov    rdi,r14
 8002a5c:	48 83 ec e0          	sub    rsp,0xffffffffffffffe0
 8002a60:	eb 03                	jmp    8002a65 <encoding.utf8.encoderune+0xe5>
 8002a62:	44 89 fe             	mov    esi,r15d
 8002a65:	89 f0                	mov    eax,esi
 8002a67:	83 e0 3f             	and    eax,0x3f
 8002a6a:	0d 80 00 00 00       	or     eax,0x80
 8002a6f:	41 88 45 00          	mov    BYTE PTR [r13+0x0],al
 8002a73:	c1 ee 06             	shr    esi,0x6
 8002a76:	48 83 eb 01          	sub    rbx,0x1
 8002a7a:	41 89 f7             	mov    r15d,esi
 8002a7d:	e9 71 ff ff ff       	jmp    80029f3 <encoding.utf8.encoderune+0x73>
 8002a82:	48 89 f8             	mov    rax,rdi
 8002a85:	8b 4d f0             	mov    ecx,DWORD PTR [rbp-0x10]
 8002a88:	0f b6 c9             	movzx  ecx,cl
 8002a8b:	44 09 f9             	or     ecx,r15d
 8002a8e:	88 0d 24 24 00 78    	mov    BYTE PTR [rip+0x78002424],cl        # 80004eb8 <__fini_array_end>
 8002a94:	49 83 fc 06          	cmp    r12,0x6
 8002a98:	0f 96 c1             	setbe  cl
 8002a9b:	0f b6 c9             	movzx  ecx,cl
 8002a9e:	f7 c1 01 00 00 00    	test   ecx,0x1
 8002aa4:	75 4d                	jne    8002af3 <encoding.utf8.encoderune+0x173>
 8002aa6:	48 8d 0d cb e2 ff 77 	lea    rcx,[rip+0x77ffe2cb]        # 80000d78 <strdata.675>
 8002aad:	48 89 4d d8          	mov    QWORD PTR [rbp-0x28],rcx
 8002ab1:	48 c7 45 e0 31 00 00 	mov    QWORD PTR [rbp-0x20],0x31
 8002ab8:	00 
 8002ab9:	48 c7 45 e8 31 00 00 	mov    QWORD PTR [rbp-0x18],0x31
 8002ac0:	00 
 8002ac1:	48 83 ec 20          	sub    rsp,0x20
 8002ac5:	48 89 e1             	mov    rcx,rsp
 8002ac8:	48 8b 55 e8          	mov    rdx,QWORD PTR [rbp-0x18]
 8002acc:	48 89 51 10          	mov    QWORD PTR [rcx+0x10],rdx
 8002ad0:	48 8b 55 e0          	mov    rdx,QWORD PTR [rbp-0x20]
 8002ad4:	48 89 51 08          	mov    QWORD PTR [rcx+0x8],rdx
 8002ad8:	48 89 c3             	mov    rbx,rax
 8002adb:	48 8b 45 d8          	mov    rax,QWORD PTR [rbp-0x28]
 8002adf:	48 89 01             	mov    QWORD PTR [rcx],rax
 8002ae2:	bf 00 00 00 00       	mov    edi,0x0
 8002ae7:	e8 d3 2d 01 00       	call   80158bf <rt.abort_fixed>
 8002aec:	48 89 d8             	mov    rax,rbx
 8002aef:	48 83 ec e0          	sub    rsp,0xffffffffffffffe0
 8002af3:	48 8d 0d be 23 00 78 	lea    rcx,[rip+0x780023be]        # 80004eb8 <__fini_array_end>
 8002afa:	48 89 4d c0          	mov    QWORD PTR [rbp-0x40],rcx
 8002afe:	4c 89 65 c8          	mov    QWORD PTR [rbp-0x38],r12
 8002b02:	48 c7 45 d0 06 00 00 	mov    QWORD PTR [rbp-0x30],0x6
 8002b09:	00 
 8002b0a:	48 8b 4d d0          	mov    rcx,QWORD PTR [rbp-0x30]
 8002b0e:	48 89 48 10          	mov    QWORD PTR [rax+0x10],rcx
 8002b12:	48 8b 4d c8          	mov    rcx,QWORD PTR [rbp-0x38]
 8002b16:	48 89 48 08          	mov    QWORD PTR [rax+0x8],rcx
 8002b1a:	48 8b 4d c0          	mov    rcx,QWORD PTR [rbp-0x40]
 8002b1e:	48 89 08             	mov    QWORD PTR [rax],rcx
 8002b21:	41 5f                	pop    r15
 8002b23:	41 5e                	pop    r14
 8002b25:	41 5d                	pop    r13
 8002b27:	41 5c                	pop    r12
 8002b29:	5b                   	pop    rbx
 8002b2a:	c9                   	leave  
 8002b2b:	c3                   	ret    

0000000008002b2c <strings.cstrlen>:
 8002b2c:	55                   	push   rbp
 8002b2d:	48 89 e5             	mov    rbp,rsp
 8002b30:	b8 00 00 00 00       	mov    eax,0x0
 8002b35:	0f b6 0c 07          	movzx  ecx,BYTE PTR [rdi+rax*1]
 8002b39:	83 f9 00             	cmp    ecx,0x0
 8002b3c:	74 06                	je     8002b44 <strings.cstrlen+0x18>
 8002b3e:	48 83 c0 01          	add    rax,0x1
 8002b42:	eb f1                	jmp    8002b35 <strings.cstrlen+0x9>
 8002b44:	c9                   	leave  
 8002b45:	c3                   	ret    

0000000008002b46 <strings.fromc_unsafe>:
 8002b46:	55                   	push   rbp
 8002b47:	48 89 e5             	mov    rbp,rsp
 8002b4a:	48 83 ec 30          	sub    rsp,0x30
 8002b4e:	53                   	push   rbx
 8002b4f:	41 54                	push   r12
 8002b51:	49 89 f4             	mov    r12,rsi
 8002b54:	48 89 fb             	mov    rbx,rdi
 8002b57:	4c 89 e7             	mov    rdi,r12
 8002b5a:	e8 cd ff ff ff       	call   8002b2c <strings.cstrlen>
 8002b5f:	4c 89 e6             	mov    rsi,r12
 8002b62:	48 89 c2             	mov    rdx,rax
 8002b65:	48 89 d8             	mov    rax,rbx
 8002b68:	48 89 75 e8          	mov    QWORD PTR [rbp-0x18],rsi
 8002b6c:	48 89 55 f0          	mov    QWORD PTR [rbp-0x10],rdx
 8002b70:	48 89 d1             	mov    rcx,rdx
 8002b73:	48 83 c1 01          	add    rcx,0x1
 8002b77:	48 89 4d f8          	mov    QWORD PTR [rbp-0x8],rcx
 8002b7b:	48 89 75 d0          	mov    QWORD PTR [rbp-0x30],rsi
 8002b7f:	48 89 55 d8          	mov    QWORD PTR [rbp-0x28],rdx
 8002b83:	48 89 4d e0          	mov    QWORD PTR [rbp-0x20],rcx
 8002b87:	48 8b 4d e0          	mov    rcx,QWORD PTR [rbp-0x20]
 8002b8b:	48 89 48 10          	mov    QWORD PTR [rax+0x10],rcx
 8002b8f:	48 8b 4d d8          	mov    rcx,QWORD PTR [rbp-0x28]
 8002b93:	48 89 48 08          	mov    QWORD PTR [rax+0x8],rcx
 8002b97:	48 8b 4d d0          	mov    rcx,QWORD PTR [rbp-0x30]
 8002b9b:	48 89 08             	mov    QWORD PTR [rax],rcx
 8002b9e:	41 5c                	pop    r12
 8002ba0:	5b                   	pop    rbx
 8002ba1:	c9                   	leave  
 8002ba2:	c3                   	ret    

0000000008002ba3 <strings.fromc>:
 8002ba3:	55                   	push   rbp
 8002ba4:	48 89 e5             	mov    rbp,rsp
 8002ba7:	48 83 ec 78          	sub    rsp,0x78
 8002bab:	53                   	push   rbx
 8002bac:	48 89 fb             	mov    rbx,rdi
 8002baf:	48 8d 7d 98          	lea    rdi,[rbp-0x68]
 8002bb3:	e8 8e ff ff ff       	call   8002b46 <strings.fromc_unsafe>
 8002bb8:	48 89 c1             	mov    rcx,rax
 8002bbb:	48 89 d8             	mov    rax,rbx
 8002bbe:	48 8b 31             	mov    rsi,QWORD PTR [rcx]
 8002bc1:	48 89 75 b0          	mov    QWORD PTR [rbp-0x50],rsi
 8002bc5:	48 8b 51 08          	mov    rdx,QWORD PTR [rcx+0x8]
 8002bc9:	48 89 55 b8          	mov    QWORD PTR [rbp-0x48],rdx
 8002bcd:	48 8b 49 10          	mov    rcx,QWORD PTR [rcx+0x10]
 8002bd1:	48 89 4d c0          	mov    QWORD PTR [rbp-0x40],rcx
 8002bd5:	c7 45 c8 71 81 80 a9 	mov    DWORD PTR [rbp-0x38],0xa9808171
 8002bdc:	48 89 75 d0          	mov    QWORD PTR [rbp-0x30],rsi
 8002be0:	48 89 55 d8          	mov    QWORD PTR [rbp-0x28],rdx
 8002be4:	48 89 4d e0          	mov    QWORD PTR [rbp-0x20],rcx
 8002be8:	48 83 ec 20          	sub    rsp,0x20
 8002bec:	48 89 e1             	mov    rcx,rsp
 8002bef:	48 8b 55 e0          	mov    rdx,QWORD PTR [rbp-0x20]
 8002bf3:	48 89 51 18          	mov    QWORD PTR [rcx+0x18],rdx
 8002bf7:	48 8b 55 d8          	mov    rdx,QWORD PTR [rbp-0x28]
 8002bfb:	48 89 51 10          	mov    QWORD PTR [rcx+0x10],rdx
 8002bff:	48 8b 55 d0          	mov    rdx,QWORD PTR [rbp-0x30]
 8002c03:	48 89 51 08          	mov    QWORD PTR [rcx+0x8],rdx
 8002c07:	48 89 c3             	mov    rbx,rax
 8002c0a:	48 8b 45 c8          	mov    rax,QWORD PTR [rbp-0x38]
 8002c0e:	48 89 01             	mov    QWORD PTR [rcx],rax
 8002c11:	e8 de fa ff ff       	call   80026f4 <encoding.utf8.valid>
 8002c16:	89 c1                	mov    ecx,eax
 8002c18:	48 89 d8             	mov    rax,rbx
 8002c1b:	48 83 ec e0          	sub    rsp,0xffffffffffffffe0
 8002c1f:	83 f9 00             	cmp    ecx,0x0
 8002c22:	75 48                	jne    8002c6c <strings.fromc+0xc9>
 8002c24:	48 8d 0d ed e1 ff 77 	lea    rcx,[rip+0x77ffe1ed]        # 80000e18 <strdata.475>
 8002c2b:	48 89 4d e8          	mov    QWORD PTR [rbp-0x18],rcx
 8002c2f:	48 c7 45 f0 3f 00 00 	mov    QWORD PTR [rbp-0x10],0x3f
 8002c36:	00 
 8002c37:	48 c7 45 f8 3f 00 00 	mov    QWORD PTR [rbp-0x8],0x3f
 8002c3e:	00 
 8002c3f:	48 83 ec 20          	sub    rsp,0x20
 8002c43:	48 89 e1             	mov    rcx,rsp
 8002c46:	48 8b 55 f8          	mov    rdx,QWORD PTR [rbp-0x8]
 8002c4a:	48 89 51 10          	mov    QWORD PTR [rcx+0x10],rdx
 8002c4e:	48 8b 55 f0          	mov    rdx,QWORD PTR [rbp-0x10]
 8002c52:	48 89 51 08          	mov    QWORD PTR [rcx+0x8],rdx
 8002c56:	48 89 c3             	mov    rbx,rax
 8002c59:	48 8b 45 e8          	mov    rax,QWORD PTR [rbp-0x18]
 8002c5d:	48 89 01             	mov    QWORD PTR [rcx],rax
 8002c60:	e8 2d 2c 01 00       	call   8015892 <rt.abort>
 8002c65:	48 89 d8             	mov    rax,rbx
 8002c68:	48 83 ec e0          	sub    rsp,0xffffffffffffffe0
 8002c6c:	48 8b 4d c0          	mov    rcx,QWORD PTR [rbp-0x40]
 8002c70:	48 89 48 10          	mov    QWORD PTR [rax+0x10],rcx
 8002c74:	48 8b 4d b8          	mov    rcx,QWORD PTR [rbp-0x48]
 8002c78:	48 89 48 08          	mov    QWORD PTR [rax+0x8],rcx
 8002c7c:	48 8b 4d b0          	mov    rcx,QWORD PTR [rbp-0x50]
 8002c80:	48 89 08             	mov    QWORD PTR [rax],rcx
 8002c83:	5b                   	pop    rbx
 8002c84:	c9                   	leave  
 8002c85:	c3                   	ret    

0000000008002c86 <strings.riter>:
 8002c86:	55                   	push   rbp
 8002c87:	48 89 e5             	mov    rbp,rsp
 8002c8a:	48 81 ec 88 00 00 00 	sub    rsp,0x88
 8002c91:	53                   	push   rbx
 8002c92:	48 89 f8             	mov    rax,rdi
 8002c95:	c7 45 e0 71 81 80 a9 	mov    DWORD PTR [rbp-0x20],0xa9808171
 8002c9c:	48 8b 4d 10          	mov    rcx,QWORD PTR [rbp+0x10]
 8002ca0:	48 89 4d e8          	mov    QWORD PTR [rbp-0x18],rcx
 8002ca4:	48 8b 4d 18          	mov    rcx,QWORD PTR [rbp+0x18]
 8002ca8:	48 89 4d f0          	mov    QWORD PTR [rbp-0x10],rcx
 8002cac:	48 8b 4d 20          	mov    rcx,QWORD PTR [rbp+0x20]
 8002cb0:	48 89 4d f8          	mov    QWORD PTR [rbp-0x8],rcx
 8002cb4:	48 83 ec 20          	sub    rsp,0x20
 8002cb8:	48 89 e1             	mov    rcx,rsp
 8002cbb:	48 8b 55 f8          	mov    rdx,QWORD PTR [rbp-0x8]
 8002cbf:	48 89 51 18          	mov    QWORD PTR [rcx+0x18],rdx
 8002cc3:	48 8b 55 f0          	mov    rdx,QWORD PTR [rbp-0x10]
 8002cc7:	48 89 51 10          	mov    QWORD PTR [rcx+0x10],rdx
 8002ccb:	48 8b 55 e8          	mov    rdx,QWORD PTR [rbp-0x18]
 8002ccf:	48 89 51 08          	mov    QWORD PTR [rcx+0x8],rdx
 8002cd3:	48 89 c3             	mov    rbx,rax
 8002cd6:	48 8b 45 e0          	mov    rax,QWORD PTR [rbp-0x20]
 8002cda:	48 89 01             	mov    QWORD PTR [rcx],rax
 8002cdd:	48 8d 7d 88          	lea    rdi,[rbp-0x78]
 8002ce1:	e8 f1 ef ff ff       	call   8001cd7 <encoding.utf8.decode>
 8002ce6:	48 89 c1             	mov    rcx,rax
 8002ce9:	48 89 d8             	mov    rax,rbx
 8002cec:	48 83 ec e0          	sub    rsp,0xffffffffffffffe0
 8002cf0:	48 8b 11             	mov    rdx,QWORD PTR [rcx]
 8002cf3:	48 89 55 a8          	mov    QWORD PTR [rbp-0x58],rdx
 8002cf7:	48 8b 51 08          	mov    rdx,QWORD PTR [rcx+0x8]
 8002cfb:	48 89 55 b0          	mov    QWORD PTR [rbp-0x50],rdx
 8002cff:	48 8b 51 10          	mov    rdx,QWORD PTR [rcx+0x10]
 8002d03:	48 89 55 b8          	mov    QWORD PTR [rbp-0x48],rdx
 8002d07:	48 8b 49 18          	mov    rcx,QWORD PTR [rcx+0x18]
 8002d0b:	48 89 4d c0          	mov    QWORD PTR [rbp-0x40],rcx
 8002d0f:	c7 45 c8 c6 b8 a0 97 	mov    DWORD PTR [rbp-0x38],0x97a0b8c6
 8002d16:	48 8d 0d 24 f6 ff ff 	lea    rcx,[rip+0xfffffffffffff624]        # 8002341 <encoding.utf8.prev>
 8002d1d:	48 89 4d d0          	mov    QWORD PTR [rbp-0x30],rcx
 8002d21:	48 8d 0d 28 f1 ff ff 	lea    rcx,[rip+0xfffffffffffff128]        # 8001e50 <encoding.utf8.next>
 8002d28:	48 89 4d d8          	mov    QWORD PTR [rbp-0x28],rcx
 8002d2c:	48 8b 4d 18          	mov    rcx,QWORD PTR [rbp+0x18]
 8002d30:	48 89 4d a8          	mov    QWORD PTR [rbp-0x58],rcx
 8002d34:	48 8b 4d d8          	mov    rcx,QWORD PTR [rbp-0x28]
 8002d38:	48 89 48 30          	mov    QWORD PTR [rax+0x30],rcx
 8002d3c:	48 8b 4d d0          	mov    rcx,QWORD PTR [rbp-0x30]
 8002d40:	48 89 48 28          	mov    QWORD PTR [rax+0x28],rcx
 8002d44:	48 8b 4d c8          	mov    rcx,QWORD PTR [rbp-0x38]
 8002d48:	48 89 48 20          	mov    QWORD PTR [rax+0x20],rcx
 8002d4c:	48 8b 4d c0          	mov    rcx,QWORD PTR [rbp-0x40]
 8002d50:	48 89 48 18          	mov    QWORD PTR [rax+0x18],rcx
 8002d54:	48 8b 4d b8          	mov    rcx,QWORD PTR [rbp-0x48]
 8002d58:	48 89 48 10          	mov    QWORD PTR [rax+0x10],rcx
 8002d5c:	48 8b 4d b0          	mov    rcx,QWORD PTR [rbp-0x50]
 8002d60:	48 89 48 08          	mov    QWORD PTR [rax+0x8],rcx
 8002d64:	48 8b 4d a8          	mov    rcx,QWORD PTR [rbp-0x58]
 8002d68:	48 89 08             	mov    QWORD PTR [rax],rcx
 8002d6b:	5b                   	pop    rbx
 8002d6c:	c9                   	leave  
 8002d6d:	c3                   	ret    

0000000008002d6e <strings.next>:
 8002d6e:	55                   	push   rbp
 8002d6f:	48 89 e5             	mov    rbp,rsp
 8002d72:	48 83 ec 78          	sub    rsp,0x78
 8002d76:	53                   	push   rbx
 8002d77:	48 89 f8             	mov    rax,rdi
 8002d7a:	48 83 c0 20          	add    rax,0x20
 8002d7e:	48 89 c1             	mov    rcx,rax
 8002d81:	8b 47 20             	mov    eax,DWORD PTR [rdi+0x20]
 8002d84:	3d e7 5f 8f 8d       	cmp    eax,0x8d8f5fe7
 8002d89:	0f 84 38 01 00 00    	je     8002ec7 <strings.next+0x159>
 8002d8f:	3d c6 b8 a0 97       	cmp    eax,0x97a0b8c6
 8002d94:	74 4d                	je     8002de3 <strings.next+0x75>
 8002d96:	48 8d 05 bb e0 ff 77 	lea    rax,[rip+0x77ffe0bb]        # 80000e58 <strdata.1072>
 8002d9d:	48 89 45 b8          	mov    QWORD PTR [rbp-0x48],rax
 8002da1:	48 c7 45 c0 29 00 00 	mov    QWORD PTR [rbp-0x40],0x29
 8002da8:	00 
 8002da9:	48 c7 45 c8 29 00 00 	mov    QWORD PTR [rbp-0x38],0x29
 8002db0:	00 
 8002db1:	48 83 ec 20          	sub    rsp,0x20
 8002db5:	48 89 e1             	mov    rcx,rsp
 8002db8:	48 8b 45 c8          	mov    rax,QWORD PTR [rbp-0x38]
 8002dbc:	48 89 41 10          	mov    QWORD PTR [rcx+0x10],rax
 8002dc0:	48 8b 45 c0          	mov    rax,QWORD PTR [rbp-0x40]
 8002dc4:	48 89 41 08          	mov    QWORD PTR [rcx+0x8],rax
 8002dc8:	48 8b 45 b8          	mov    rax,QWORD PTR [rbp-0x48]
 8002dcc:	48 89 01             	mov    QWORD PTR [rcx],rax
 8002dcf:	48 89 fb             	mov    rbx,rdi
 8002dd2:	bf 04 00 00 00       	mov    edi,0x4
 8002dd7:	e8 e3 2a 01 00       	call   80158bf <rt.abort_fixed>
 8002ddc:	48 89 df             	mov    rdi,rbx
 8002ddf:	48 83 ec e0          	sub    rsp,0xffffffffffffffe0
 8002de3:	48 8b 47 28          	mov    rax,QWORD PTR [rdi+0x28]
 8002de7:	ff d0                	call   rax
 8002de9:	48 89 45 98          	mov    QWORD PTR [rbp-0x68],rax
 8002ded:	8b 5d 98             	mov    ebx,DWORD PTR [rbp-0x68]
 8002df0:	81 fb c6 b8 a0 97    	cmp    ebx,0x97a0b8c6
 8002df6:	0f 84 bb 00 00 00    	je     8002eb7 <strings.next+0x149>
 8002dfc:	81 fb dc 20 d1 94    	cmp    ebx,0x94d120dc
 8002e02:	74 08                	je     8002e0c <strings.next+0x9e>
 8002e04:	81 fb b6 d2 0b c1    	cmp    ebx,0xc10bd2b6
 8002e0a:	75 42                	jne    8002e4e <strings.next+0xe0>
 8002e0c:	48 8d 05 75 e0 ff 77 	lea    rax,[rip+0x77ffe075]        # 80000e88 <strdata.1102>
 8002e13:	48 89 45 d0          	mov    QWORD PTR [rbp-0x30],rax
 8002e17:	48 c7 45 d8 59 00 00 	mov    QWORD PTR [rbp-0x28],0x59
 8002e1e:	00 
 8002e1f:	48 c7 45 e0 59 00 00 	mov    QWORD PTR [rbp-0x20],0x59
 8002e26:	00 
 8002e27:	48 83 ec 20          	sub    rsp,0x20
 8002e2b:	48 89 e1             	mov    rcx,rsp
 8002e2e:	48 8b 45 e0          	mov    rax,QWORD PTR [rbp-0x20]
 8002e32:	48 89 41 10          	mov    QWORD PTR [rcx+0x10],rax
 8002e36:	48 8b 45 d8          	mov    rax,QWORD PTR [rbp-0x28]
 8002e3a:	48 89 41 08          	mov    QWORD PTR [rcx+0x8],rax
 8002e3e:	48 8b 45 d0          	mov    rax,QWORD PTR [rbp-0x30]
 8002e42:	48 89 01             	mov    QWORD PTR [rcx],rax
 8002e45:	e8 48 2a 01 00       	call   8015892 <rt.abort>
 8002e4a:	48 83 ec e0          	sub    rsp,0xffffffffffffffe0
 8002e4e:	81 fb e7 5f 8f 8d    	cmp    ebx,0x8d8f5fe7
 8002e54:	74 4e                	je     8002ea4 <strings.next+0x136>
 8002e56:	48 8d 05 8b e0 ff 77 	lea    rax,[rip+0x77ffe08b]        # 80000ee8 <strdata.1119>
 8002e5d:	48 89 45 e8          	mov    QWORD PTR [rbp-0x18],rax
 8002e61:	48 c7 45 f0 29 00 00 	mov    QWORD PTR [rbp-0x10],0x29
 8002e68:	00 
 8002e69:	48 c7 45 f8 29 00 00 	mov    QWORD PTR [rbp-0x8],0x29
 8002e70:	00 
 8002e71:	48 83 ec 20          	sub    rsp,0x20
 8002e75:	48 89 e1             	mov    rcx,rsp
 8002e78:	48 8b 45 f8          	mov    rax,QWORD PTR [rbp-0x8]
 8002e7c:	48 89 41 10          	mov    QWORD PTR [rcx+0x10],rax
 8002e80:	48 8b 45 f0          	mov    rax,QWORD PTR [rbp-0x10]
 8002e84:	48 89 41 08          	mov    QWORD PTR [rcx+0x8],rax
 8002e88:	48 8b 45 e8          	mov    rax,QWORD PTR [rbp-0x18]
 8002e8c:	48 89 01             	mov    QWORD PTR [rcx],rax
 8002e8f:	bf 04 00 00 00       	mov    edi,0x4
 8002e94:	e8 26 2a 01 00       	call   80158bf <rt.abort_fixed>
 8002e99:	48 83 ec e0          	sub    rsp,0xffffffffffffffe0
 8002e9d:	b8 00 00 00 00       	mov    eax,0x0
 8002ea2:	eb 1e                	jmp    8002ec2 <strings.next+0x154>
 8002ea4:	8b 45 9c             	mov    eax,DWORD PTR [rbp-0x64]
 8002ea7:	c7 45 b0 e7 5f 8f 8d 	mov    DWORD PTR [rbp-0x50],0x8d8f5fe7
 8002eae:	89 45 b4             	mov    DWORD PTR [rbp-0x4c],eax
 8002eb1:	48 8d 45 b0          	lea    rax,[rbp-0x50]
 8002eb5:	eb 0b                	jmp    8002ec2 <strings.next+0x154>
 8002eb7:	c7 45 a8 c6 b8 a0 97 	mov    DWORD PTR [rbp-0x58],0x97a0b8c6
 8002ebe:	48 8d 45 a8          	lea    rax,[rbp-0x58]
 8002ec2:	48 8b 00             	mov    rax,QWORD PTR [rax]
 8002ec5:	eb 1b                	jmp    8002ee2 <strings.next+0x174>
 8002ec7:	48 89 c8             	mov    rax,rcx
 8002eca:	8b 40 04             	mov    eax,DWORD PTR [rax+0x4]
 8002ecd:	c7 47 20 c6 b8 a0 97 	mov    DWORD PTR [rdi+0x20],0x97a0b8c6
 8002ed4:	c7 45 a0 e7 5f 8f 8d 	mov    DWORD PTR [rbp-0x60],0x8d8f5fe7
 8002edb:	89 45 a4             	mov    DWORD PTR [rbp-0x5c],eax
 8002ede:	48 8b 45 a0          	mov    rax,QWORD PTR [rbp-0x60]
 8002ee2:	5b                   	pop    rbx
 8002ee3:	c9                   	leave  
 8002ee4:	c3                   	ret    

0000000008002ee5 <strings.prev>:
 8002ee5:	55                   	push   rbp
 8002ee6:	48 89 e5             	mov    rbp,rsp
 8002ee9:	48 83 ec 68          	sub    rsp,0x68
 8002eed:	53                   	push   rbx
 8002eee:	48 89 fb             	mov    rbx,rdi
 8002ef1:	8b 43 20             	mov    eax,DWORD PTR [rbx+0x20]
 8002ef4:	3d c6 b8 a0 97       	cmp    eax,0x97a0b8c6
 8002ef9:	0f 94 c0             	sete   al
 8002efc:	0f b6 c0             	movzx  eax,al
 8002eff:	83 f8 00             	cmp    eax,0x0
 8002f02:	75 47                	jne    8002f4b <strings.prev+0x66>
 8002f04:	48 8d 05 0d e0 ff 77 	lea    rax,[rip+0x77ffe00d]        # 80000f18 <strdata.1137>
 8002f0b:	48 89 45 b8          	mov    QWORD PTR [rbp-0x48],rax
 8002f0f:	48 c7 45 c0 3b 00 00 	mov    QWORD PTR [rbp-0x40],0x3b
 8002f16:	00 
 8002f17:	48 c7 45 c8 3b 00 00 	mov    QWORD PTR [rbp-0x38],0x3b
 8002f1e:	00 
 8002f1f:	48 83 ec 20          	sub    rsp,0x20
 8002f23:	48 89 e1             	mov    rcx,rsp
 8002f26:	48 8b 45 c8          	mov    rax,QWORD PTR [rbp-0x38]
 8002f2a:	48 89 41 10          	mov    QWORD PTR [rcx+0x10],rax
 8002f2e:	48 8b 45 c0          	mov    rax,QWORD PTR [rbp-0x40]
 8002f32:	48 89 41 08          	mov    QWORD PTR [rcx+0x8],rax
 8002f36:	48 8b 45 b8          	mov    rax,QWORD PTR [rbp-0x48]
 8002f3a:	48 89 01             	mov    QWORD PTR [rcx],rax
 8002f3d:	e8 50 29 01 00       	call   8015892 <rt.abort>
 8002f42:	48 89 df             	mov    rdi,rbx
 8002f45:	48 83 ec e0          	sub    rsp,0xffffffffffffffe0
 8002f49:	eb 03                	jmp    8002f4e <strings.prev+0x69>
 8002f4b:	48 89 df             	mov    rdi,rbx
 8002f4e:	48 8b 47 30          	mov    rax,QWORD PTR [rdi+0x30]
 8002f52:	ff d0                	call   rax
 8002f54:	48 89 45 a0          	mov    QWORD PTR [rbp-0x60],rax
 8002f58:	8b 5d a0             	mov    ebx,DWORD PTR [rbp-0x60]
 8002f5b:	81 fb c6 b8 a0 97    	cmp    ebx,0x97a0b8c6
 8002f61:	0f 84 bb 00 00 00    	je     8003022 <strings.prev+0x13d>
 8002f67:	81 fb dc 20 d1 94    	cmp    ebx,0x94d120dc
 8002f6d:	74 08                	je     8002f77 <strings.prev+0x92>
 8002f6f:	81 fb b6 d2 0b c1    	cmp    ebx,0xc10bd2b6
 8002f75:	75 42                	jne    8002fb9 <strings.prev+0xd4>
 8002f77:	48 8d 05 da df ff 77 	lea    rax,[rip+0x77ffdfda]        # 80000f58 <strdata.1165>
 8002f7e:	48 89 45 d0          	mov    QWORD PTR [rbp-0x30],rax
 8002f82:	48 c7 45 d8 59 00 00 	mov    QWORD PTR [rbp-0x28],0x59
 8002f89:	00 
 8002f8a:	48 c7 45 e0 59 00 00 	mov    QWORD PTR [rbp-0x20],0x59
 8002f91:	00 
 8002f92:	48 83 ec 20          	sub    rsp,0x20
 8002f96:	48 89 e1             	mov    rcx,rsp
 8002f99:	48 8b 45 e0          	mov    rax,QWORD PTR [rbp-0x20]
 8002f9d:	48 89 41 10          	mov    QWORD PTR [rcx+0x10],rax
 8002fa1:	48 8b 45 d8          	mov    rax,QWORD PTR [rbp-0x28]
 8002fa5:	48 89 41 08          	mov    QWORD PTR [rcx+0x8],rax
 8002fa9:	48 8b 45 d0          	mov    rax,QWORD PTR [rbp-0x30]
 8002fad:	48 89 01             	mov    QWORD PTR [rcx],rax
 8002fb0:	e8 dd 28 01 00       	call   8015892 <rt.abort>
 8002fb5:	48 83 ec e0          	sub    rsp,0xffffffffffffffe0
 8002fb9:	81 fb e7 5f 8f 8d    	cmp    ebx,0x8d8f5fe7
 8002fbf:	74 4e                	je     800300f <strings.prev+0x12a>
 8002fc1:	48 8d 05 f0 df ff 77 	lea    rax,[rip+0x77ffdff0]        # 80000fb8 <strdata.1182>
 8002fc8:	48 89 45 e8          	mov    QWORD PTR [rbp-0x18],rax
 8002fcc:	48 c7 45 f0 29 00 00 	mov    QWORD PTR [rbp-0x10],0x29
 8002fd3:	00 
 8002fd4:	48 c7 45 f8 29 00 00 	mov    QWORD PTR [rbp-0x8],0x29
 8002fdb:	00 
 8002fdc:	48 83 ec 20          	sub    rsp,0x20
 8002fe0:	48 89 e1             	mov    rcx,rsp
 8002fe3:	48 8b 45 f8          	mov    rax,QWORD PTR [rbp-0x8]
 8002fe7:	48 89 41 10          	mov    QWORD PTR [rcx+0x10],rax
 8002feb:	48 8b 45 f0          	mov    rax,QWORD PTR [rbp-0x10]
 8002fef:	48 89 41 08          	mov    QWORD PTR [rcx+0x8],rax
 8002ff3:	48 8b 45 e8          	mov    rax,QWORD PTR [rbp-0x18]
 8002ff7:	48 89 01             	mov    QWORD PTR [rcx],rax
 8002ffa:	bf 04 00 00 00       	mov    edi,0x4
 8002fff:	e8 bb 28 01 00       	call   80158bf <rt.abort_fixed>
 8003004:	48 83 ec e0          	sub    rsp,0xffffffffffffffe0
 8003008:	b8 00 00 00 00       	mov    eax,0x0
 800300d:	eb 1e                	jmp    800302d <strings.prev+0x148>
 800300f:	8b 45 a4             	mov    eax,DWORD PTR [rbp-0x5c]
 8003012:	c7 45 b0 e7 5f 8f 8d 	mov    DWORD PTR [rbp-0x50],0x8d8f5fe7
 8003019:	89 45 b4             	mov    DWORD PTR [rbp-0x4c],eax
 800301c:	48 8d 45 b0          	lea    rax,[rbp-0x50]
 8003020:	eb 0b                	jmp    800302d <strings.prev+0x148>
 8003022:	c7 45 a8 c6 b8 a0 97 	mov    DWORD PTR [rbp-0x58],0x97a0b8c6
 8003029:	48 8d 45 a8          	lea    rax,[rbp-0x58]
 800302d:	48 8b 00             	mov    rax,QWORD PTR [rax]
 8003030:	5b                   	pop    rbx
 8003031:	c9                   	leave  
 8003032:	c3                   	ret    

0000000008003033 <strings.rtrim>:
 8003033:	55                   	push   rbp
 8003034:	48 89 e5             	mov    rbp,rsp
 8003037:	48 81 ec 70 01 00 00 	sub    rsp,0x170
 800303e:	53                   	push   rbx
 800303f:	41 54                	push   r12
 8003041:	41 55                	push   r13
 8003043:	41 56                	push   r14
 8003045:	48 89 f8             	mov    rax,rdi
 8003048:	48 8b 4d 30          	mov    rcx,QWORD PTR [rbp+0x30]
 800304c:	48 83 f9 00          	cmp    rcx,0x0
 8003050:	0f 84 94 02 00 00    	je     80032ea <strings.rtrim+0x2b7>
 8003056:	48 83 ec 20          	sub    rsp,0x20
 800305a:	48 89 e1             	mov    rcx,rsp
 800305d:	48 8b 55 20          	mov    rdx,QWORD PTR [rbp+0x20]
 8003061:	48 89 51 10          	mov    QWORD PTR [rcx+0x10],rdx
 8003065:	48 8b 55 18          	mov    rdx,QWORD PTR [rbp+0x18]
 8003069:	48 89 51 08          	mov    QWORD PTR [rcx+0x8],rdx
 800306d:	48 89 c3             	mov    rbx,rax
 8003070:	48 8b 45 10          	mov    rax,QWORD PTR [rbp+0x10]
 8003074:	48 89 01             	mov    QWORD PTR [rcx],rax
 8003077:	48 8d bd e8 fe ff ff 	lea    rdi,[rbp-0x118]
 800307e:	e8 03 fc ff ff       	call   8002c86 <strings.riter>
 8003083:	48 83 ec e0          	sub    rsp,0xffffffffffffffe0
 8003087:	48 8b 08             	mov    rcx,QWORD PTR [rax]
 800308a:	48 89 8d 68 ff ff ff 	mov    QWORD PTR [rbp-0x98],rcx
 8003091:	48 8b 48 08          	mov    rcx,QWORD PTR [rax+0x8]
 8003095:	48 89 8d 70 ff ff ff 	mov    QWORD PTR [rbp-0x90],rcx
 800309c:	48 8b 48 10          	mov    rcx,QWORD PTR [rax+0x10]
 80030a0:	48 89 8d 78 ff ff ff 	mov    QWORD PTR [rbp-0x88],rcx
 80030a7:	48 8b 48 18          	mov    rcx,QWORD PTR [rax+0x18]
 80030ab:	48 89 4d 80          	mov    QWORD PTR [rbp-0x80],rcx
 80030af:	48 8b 48 20          	mov    rcx,QWORD PTR [rax+0x20]
 80030b3:	48 89 4d 88          	mov    QWORD PTR [rbp-0x78],rcx
 80030b7:	48 8b 48 28          	mov    rcx,QWORD PTR [rax+0x28]
 80030bb:	48 89 4d 90          	mov    QWORD PTR [rbp-0x70],rcx
 80030bf:	48 8b 40 30          	mov    rax,QWORD PTR [rax+0x30]
 80030c3:	48 89 45 98          	mov    QWORD PTR [rbp-0x68],rax
 80030c7:	48 89 df             	mov    rdi,rbx
 80030ca:	41 bc 00 00 00 00    	mov    r12d,0x0
 80030d0:	48 89 fb             	mov    rbx,rdi
 80030d3:	48 8d bd 68 ff ff ff 	lea    rdi,[rbp-0x98]
 80030da:	e8 8f fc ff ff       	call   8002d6e <strings.next>
 80030df:	48 89 df             	mov    rdi,rbx
 80030e2:	48 89 85 90 fe ff ff 	mov    QWORD PTR [rbp-0x170],rax
 80030e9:	8b 85 90 fe ff ff    	mov    eax,DWORD PTR [rbp-0x170]
 80030ef:	3d e7 5f 8f 8d       	cmp    eax,0x8d8f5fe7
 80030f4:	74 61                	je     8003157 <strings.rtrim+0x124>
 80030f6:	3d c6 b8 a0 97       	cmp    eax,0x97a0b8c6
 80030fb:	74 4f                	je     800314c <strings.rtrim+0x119>
 80030fd:	48 8d 05 ec de ff 77 	lea    rax,[rip+0x77ffdeec]        # 80000ff0 <strdata.2262>
 8003104:	48 89 45 a0          	mov    QWORD PTR [rbp-0x60],rax
 8003108:	48 c7 45 a8 29 00 00 	mov    QWORD PTR [rbp-0x58],0x29
 800310f:	00 
 8003110:	48 c7 45 b0 29 00 00 	mov    QWORD PTR [rbp-0x50],0x29
 8003117:	00 
 8003118:	48 83 ec 20          	sub    rsp,0x20
 800311c:	48 89 e1             	mov    rcx,rsp
 800311f:	48 8b 45 b0          	mov    rax,QWORD PTR [rbp-0x50]
 8003123:	48 89 41 10          	mov    QWORD PTR [rcx+0x10],rax
 8003127:	48 8b 45 a8          	mov    rax,QWORD PTR [rbp-0x58]
 800312b:	48 89 41 08          	mov    QWORD PTR [rcx+0x8],rax
 800312f:	48 8b 45 a0          	mov    rax,QWORD PTR [rbp-0x60]
 8003133:	48 89 01             	mov    QWORD PTR [rcx],rax
 8003136:	48 89 fb             	mov    rbx,rdi
 8003139:	bf 04 00 00 00       	mov    edi,0x4
 800313e:	e8 7c 27 01 00       	call   80158bf <rt.abort_fixed>
 8003143:	48 89 df             	mov    rdi,rbx
 8003146:	48 83 ec e0          	sub    rsp,0xffffffffffffffe0
 800314a:	eb 12                	jmp    800315e <strings.rtrim+0x12b>
 800314c:	48 89 fb             	mov    rbx,rdi
 800314f:	48 89 d8             	mov    rax,rbx
 8003152:	e9 b5 00 00 00       	jmp    800320c <strings.rtrim+0x1d9>
 8003157:	44 8b a5 94 fe ff ff 	mov    r12d,DWORD PTR [rbp-0x16c]
 800315e:	bb 00 00 00 00       	mov    ebx,0x0
 8003163:	48 8b 45 30          	mov    rax,QWORD PTR [rbp+0x30]
 8003167:	48 39 c3             	cmp    rbx,rax
 800316a:	73 76                	jae    80031e2 <strings.rtrim+0x1af>
 800316c:	48 8b 4d 28          	mov    rcx,QWORD PTR [rbp+0x28]
 8003170:	48 6b d3 04          	imul   rdx,rbx,0x4
 8003174:	49 89 cd             	mov    r13,rcx
 8003177:	49 01 d5             	add    r13,rdx
 800317a:	48 39 c3             	cmp    rbx,rax
 800317d:	72 4d                	jb     80031cc <strings.rtrim+0x199>
 800317f:	48 8d 05 9a de ff 77 	lea    rax,[rip+0x77ffde9a]        # 80001020 <strdata.2290>
 8003186:	48 89 45 b8          	mov    QWORD PTR [rbp-0x48],rax
 800318a:	48 c7 45 c0 29 00 00 	mov    QWORD PTR [rbp-0x40],0x29
 8003191:	00 
 8003192:	48 c7 45 c8 29 00 00 	mov    QWORD PTR [rbp-0x38],0x29
 8003199:	00 
 800319a:	48 83 ec 20          	sub    rsp,0x20
 800319e:	48 89 e1             	mov    rcx,rsp
 80031a1:	48 8b 45 c8          	mov    rax,QWORD PTR [rbp-0x38]
 80031a5:	48 89 41 10          	mov    QWORD PTR [rcx+0x10],rax
 80031a9:	48 8b 45 c0          	mov    rax,QWORD PTR [rbp-0x40]
 80031ad:	48 89 41 08          	mov    QWORD PTR [rcx+0x8],rax
 80031b1:	48 8b 45 b8          	mov    rax,QWORD PTR [rbp-0x48]
 80031b5:	48 89 01             	mov    QWORD PTR [rcx],rax
 80031b8:	49 89 fe             	mov    r14,rdi
 80031bb:	bf 00 00 00 00       	mov    edi,0x0
 80031c0:	e8 fa 26 01 00       	call   80158bf <rt.abort_fixed>
 80031c5:	4c 89 f7             	mov    rdi,r14
 80031c8:	48 83 ec e0          	sub    rsp,0xffffffffffffffe0
 80031cc:	41 8b 45 00          	mov    eax,DWORD PTR [r13+0x0]
 80031d0:	41 39 c4             	cmp    r12d,eax
 80031d3:	74 06                	je     80031db <strings.rtrim+0x1a8>
 80031d5:	48 83 c3 01          	add    rbx,0x1
 80031d9:	eb 88                	jmp    8003163 <strings.rtrim+0x130>
 80031db:	b8 01 00 00 00       	mov    eax,0x1
 80031e0:	eb 05                	jmp    80031e7 <strings.rtrim+0x1b4>
 80031e2:	b8 00 00 00 00       	mov    eax,0x0
 80031e7:	83 f8 00             	cmp    eax,0x0
 80031ea:	0f 85 e0 fe ff ff    	jne    80030d0 <strings.rtrim+0x9d>
 80031f0:	48 89 fb             	mov    rbx,rdi
 80031f3:	48 8d bd 68 ff ff ff 	lea    rdi,[rbp-0x98]
 80031fa:	e8 e6 fc ff ff       	call   8002ee5 <strings.prev>
 80031ff:	48 89 c1             	mov    rcx,rax
 8003202:	48 89 d8             	mov    rax,rbx
 8003205:	48 89 8d 98 fe ff ff 	mov    QWORD PTR [rbp-0x168],rcx
 800320c:	4c 8b ad 70 ff ff ff 	mov    r13,QWORD PTR [rbp-0x90]
 8003213:	48 8b 9d 78 ff ff ff 	mov    rbx,QWORD PTR [rbp-0x88]
 800321a:	4c 8b a5 68 ff ff ff 	mov    r12,QWORD PTR [rbp-0x98]
 8003221:	48 83 fb 00          	cmp    rbx,0x0
 8003225:	0f 93 c1             	setae  cl
 8003228:	0f b6 c9             	movzx  ecx,cl
 800322b:	49 39 dc             	cmp    r12,rbx
 800322e:	0f 96 c2             	setbe  dl
 8003231:	0f b6 d2             	movzx  edx,dl
 8003234:	85 ca                	test   edx,ecx
 8003236:	75 4d                	jne    8003285 <strings.rtrim+0x252>
 8003238:	48 8d 0d 11 de ff 77 	lea    rcx,[rip+0x77ffde11]        # 80001050 <strdata.2321>
 800323f:	48 89 4d e8          	mov    QWORD PTR [rbp-0x18],rcx
 8003243:	48 c7 45 f0 29 00 00 	mov    QWORD PTR [rbp-0x10],0x29
 800324a:	00 
 800324b:	48 c7 45 f8 29 00 00 	mov    QWORD PTR [rbp-0x8],0x29
 8003252:	00 
 8003253:	48 83 ec 20          	sub    rsp,0x20
 8003257:	48 89 e1             	mov    rcx,rsp
 800325a:	48 8b 55 f8          	mov    rdx,QWORD PTR [rbp-0x8]
 800325e:	48 89 51 10          	mov    QWORD PTR [rcx+0x10],rdx
 8003262:	48 8b 55 f0          	mov    rdx,QWORD PTR [rbp-0x10]
 8003266:	48 89 51 08          	mov    QWORD PTR [rcx+0x8],rdx
 800326a:	49 89 c6             	mov    r14,rax
 800326d:	48 8b 45 e8          	mov    rax,QWORD PTR [rbp-0x18]
 8003271:	48 89 01             	mov    QWORD PTR [rcx],rax
 8003274:	bf 00 00 00 00       	mov    edi,0x0
 8003279:	e8 41 26 01 00       	call   80158bf <rt.abort_fixed>
 800327e:	4c 89 f0             	mov    rax,r14
 8003281:	48 83 ec e0          	sub    rsp,0xffffffffffffffe0
 8003285:	4c 89 e9             	mov    rcx,r13
 8003288:	48 83 c1 00          	add    rcx,0x0
 800328c:	48 89 4d d0          	mov    QWORD PTR [rbp-0x30],rcx
 8003290:	4c 89 65 d8          	mov    QWORD PTR [rbp-0x28],r12
 8003294:	48 89 5d e0          	mov    QWORD PTR [rbp-0x20],rbx
 8003298:	48 83 ec 20          	sub    rsp,0x20
 800329c:	48 89 e1             	mov    rcx,rsp
 800329f:	48 8b 55 e0          	mov    rdx,QWORD PTR [rbp-0x20]
 80032a3:	48 89 51 10          	mov    QWORD PTR [rcx+0x10],rdx
 80032a7:	48 8b 55 d8          	mov    rdx,QWORD PTR [rbp-0x28]
 80032ab:	48 89 51 08          	mov    QWORD PTR [rcx+0x8],rdx
 80032af:	48 89 c3             	mov    rbx,rax
 80032b2:	48 8b 45 d0          	mov    rax,QWORD PTR [rbp-0x30]
 80032b6:	48 89 01             	mov    QWORD PTR [rcx],rax
 80032b9:	48 8d bd 20 ff ff ff 	lea    rdi,[rbp-0xe0]
 80032c0:	e8 4d 01 00 00       	call   8003412 <strings.fromutf8_unsafe>
 80032c5:	48 89 c1             	mov    rcx,rax
 80032c8:	48 89 d8             	mov    rax,rbx
 80032cb:	48 83 ec e0          	sub    rsp,0xffffffffffffffe0
 80032cf:	48 8b 51 10          	mov    rdx,QWORD PTR [rcx+0x10]
 80032d3:	48 89 50 10          	mov    QWORD PTR [rax+0x10],rdx
 80032d7:	48 8b 51 08          	mov    rdx,QWORD PTR [rcx+0x8]
 80032db:	48 89 50 08          	mov    QWORD PTR [rax+0x8],rdx
 80032df:	48 8b 09             	mov    rcx,QWORD PTR [rcx]
 80032e2:	48 89 08             	mov    QWORD PTR [rax],rcx
 80032e5:	e9 1f 01 00 00       	jmp    8003409 <strings.rtrim+0x3d6>
 80032ea:	48 83 ec 20          	sub    rsp,0x20
 80032ee:	48 89 e1             	mov    rcx,rsp
 80032f1:	48 8b 55 20          	mov    rdx,QWORD PTR [rbp+0x20]
 80032f5:	48 89 51 10          	mov    QWORD PTR [rcx+0x10],rdx
 80032f9:	48 8b 55 18          	mov    rdx,QWORD PTR [rbp+0x18]
 80032fd:	48 89 51 08          	mov    QWORD PTR [rcx+0x8],rdx
 8003301:	48 89 c3             	mov    rbx,rax
 8003304:	48 8b 45 10          	mov    rax,QWORD PTR [rbp+0x10]
 8003308:	48 89 01             	mov    QWORD PTR [rcx],rax
 800330b:	48 8d bd d0 fe ff ff 	lea    rdi,[rbp-0x130]
 8003312:	e8 47 02 00 00       	call   800355e <strings.toutf8>
 8003317:	48 89 c1             	mov    rcx,rax
 800331a:	48 89 d8             	mov    rax,rbx
 800331d:	48 83 ec e0          	sub    rsp,0xffffffffffffffe0
 8003321:	48 8b 11             	mov    rdx,QWORD PTR [rcx]
 8003324:	48 89 95 38 ff ff ff 	mov    QWORD PTR [rbp-0xc8],rdx
 800332b:	48 8b 51 08          	mov    rdx,QWORD PTR [rcx+0x8]
 800332f:	48 89 95 40 ff ff ff 	mov    QWORD PTR [rbp-0xc0],rdx
 8003336:	48 8b 49 10          	mov    rcx,QWORD PTR [rcx+0x10]
 800333a:	48 89 8d 48 ff ff ff 	mov    QWORD PTR [rbp-0xb8],rcx
 8003341:	48 8d 0d a0 dc ff 77 	lea    rcx,[rip+0x77ffdca0]        # 80000fe8 <strings.whitespace>
 8003348:	48 89 8d 50 ff ff ff 	mov    QWORD PTR [rbp-0xb0],rcx
 800334f:	48 c7 85 58 ff ff ff 	mov    QWORD PTR [rbp-0xa8],0x4
 8003356:	04 00 00 00 
 800335a:	48 c7 85 60 ff ff ff 	mov    QWORD PTR [rbp-0xa0],0x4
 8003361:	04 00 00 00 
 8003365:	48 83 ec 30          	sub    rsp,0x30
 8003369:	48 89 e1             	mov    rcx,rsp
 800336c:	48 8b 95 60 ff ff ff 	mov    rdx,QWORD PTR [rbp-0xa0]
 8003373:	48 89 51 28          	mov    QWORD PTR [rcx+0x28],rdx
 8003377:	48 8b 95 58 ff ff ff 	mov    rdx,QWORD PTR [rbp-0xa8]
 800337e:	48 89 51 20          	mov    QWORD PTR [rcx+0x20],rdx
 8003382:	48 8b 95 50 ff ff ff 	mov    rdx,QWORD PTR [rbp-0xb0]
 8003389:	48 89 51 18          	mov    QWORD PTR [rcx+0x18],rdx
 800338d:	48 8b 95 48 ff ff ff 	mov    rdx,QWORD PTR [rbp-0xb8]
 8003394:	48 89 51 10          	mov    QWORD PTR [rcx+0x10],rdx
 8003398:	48 8b 95 40 ff ff ff 	mov    rdx,QWORD PTR [rbp-0xc0]
 800339f:	48 89 51 08          	mov    QWORD PTR [rcx+0x8],rdx
 80033a3:	48 89 c3             	mov    rbx,rax
 80033a6:	48 8b 85 38 ff ff ff 	mov    rax,QWORD PTR [rbp-0xc8]
 80033ad:	48 89 01             	mov    QWORD PTR [rcx],rax
 80033b0:	48 8d bd b8 fe ff ff 	lea    rdi,[rbp-0x148]
 80033b7:	e8 d6 de ff ff       	call   8001292 <bytes.rtrim>
 80033bc:	48 83 ec d0          	sub    rsp,0xffffffffffffffd0
 80033c0:	48 83 ec 20          	sub    rsp,0x20
 80033c4:	48 89 e1             	mov    rcx,rsp
 80033c7:	48 8b 50 10          	mov    rdx,QWORD PTR [rax+0x10]
 80033cb:	48 89 51 10          	mov    QWORD PTR [rcx+0x10],rdx
 80033cf:	48 8b 50 08          	mov    rdx,QWORD PTR [rax+0x8]
 80033d3:	48 89 51 08          	mov    QWORD PTR [rcx+0x8],rdx
 80033d7:	48 8b 00             	mov    rax,QWORD PTR [rax]
 80033da:	48 89 01             	mov    QWORD PTR [rcx],rax
 80033dd:	48 8d bd a0 fe ff ff 	lea    rdi,[rbp-0x160]
 80033e4:	e8 29 00 00 00       	call   8003412 <strings.fromutf8_unsafe>
 80033e9:	48 89 c1             	mov    rcx,rax
 80033ec:	48 89 d8             	mov    rax,rbx
 80033ef:	48 83 ec e0          	sub    rsp,0xffffffffffffffe0
 80033f3:	48 8b 51 10          	mov    rdx,QWORD PTR [rcx+0x10]
 80033f7:	48 89 50 10          	mov    QWORD PTR [rax+0x10],rdx
 80033fb:	48 8b 51 08          	mov    rdx,QWORD PTR [rcx+0x8]
 80033ff:	48 89 50 08          	mov    QWORD PTR [rax+0x8],rdx
 8003403:	48 8b 09             	mov    rcx,QWORD PTR [rcx]
 8003406:	48 89 08             	mov    QWORD PTR [rax],rcx
 8003409:	41 5e                	pop    r14
 800340b:	41 5d                	pop    r13
 800340d:	41 5c                	pop    r12
 800340f:	5b                   	pop    rbx
 8003410:	c9                   	leave  
 8003411:	c3                   	ret    

0000000008003412 <strings.fromutf8_unsafe>:
 8003412:	55                   	push   rbp
 8003413:	48 89 e5             	mov    rbp,rsp
 8003416:	48 83 ec 30          	sub    rsp,0x30
 800341a:	48 89 f8             	mov    rax,rdi
 800341d:	48 8b 55 10          	mov    rdx,QWORD PTR [rbp+0x10]
 8003421:	48 89 55 e8          	mov    QWORD PTR [rbp-0x18],rdx
 8003425:	48 8b 4d 18          	mov    rcx,QWORD PTR [rbp+0x18]
 8003429:	48 89 4d f0          	mov    QWORD PTR [rbp-0x10],rcx
 800342d:	48 89 4d f8          	mov    QWORD PTR [rbp-0x8],rcx
 8003431:	48 89 55 d0          	mov    QWORD PTR [rbp-0x30],rdx
 8003435:	48 89 4d d8          	mov    QWORD PTR [rbp-0x28],rcx
 8003439:	48 89 4d e0          	mov    QWORD PTR [rbp-0x20],rcx
 800343d:	48 8b 4d e0          	mov    rcx,QWORD PTR [rbp-0x20]
 8003441:	48 89 48 10          	mov    QWORD PTR [rax+0x10],rcx
 8003445:	48 8b 4d d8          	mov    rcx,QWORD PTR [rbp-0x28]
 8003449:	48 89 48 08          	mov    QWORD PTR [rax+0x8],rcx
 800344d:	48 8b 4d d0          	mov    rcx,QWORD PTR [rbp-0x30]
 8003451:	48 89 08             	mov    QWORD PTR [rax],rcx
 8003454:	c9                   	leave  
 8003455:	c3                   	ret    

0000000008003456 <strings.fromutf8>:
 8003456:	55                   	push   rbp
 8003457:	48 89 e5             	mov    rbp,rsp
 800345a:	48 83 ec 78          	sub    rsp,0x78
 800345e:	53                   	push   rbx
 800345f:	48 89 f8             	mov    rax,rdi
 8003462:	48 83 ec 20          	sub    rsp,0x20
 8003466:	48 89 e1             	mov    rcx,rsp
 8003469:	48 8b 55 20          	mov    rdx,QWORD PTR [rbp+0x20]
 800346d:	48 89 51 10          	mov    QWORD PTR [rcx+0x10],rdx
 8003471:	48 8b 55 18          	mov    rdx,QWORD PTR [rbp+0x18]
 8003475:	48 89 51 08          	mov    QWORD PTR [rcx+0x8],rdx
 8003479:	48 89 c3             	mov    rbx,rax
 800347c:	48 8b 45 10          	mov    rax,QWORD PTR [rbp+0x10]
 8003480:	48 89 01             	mov    QWORD PTR [rcx],rax
 8003483:	48 8d 7d 98          	lea    rdi,[rbp-0x68]
 8003487:	e8 86 ff ff ff       	call   8003412 <strings.fromutf8_unsafe>
 800348c:	48 89 c1             	mov    rcx,rax
 800348f:	48 89 d8             	mov    rax,rbx
 8003492:	48 83 ec e0          	sub    rsp,0xffffffffffffffe0
 8003496:	48 8b 31             	mov    rsi,QWORD PTR [rcx]
 8003499:	48 89 75 b0          	mov    QWORD PTR [rbp-0x50],rsi
 800349d:	48 8b 51 08          	mov    rdx,QWORD PTR [rcx+0x8]
 80034a1:	48 89 55 b8          	mov    QWORD PTR [rbp-0x48],rdx
 80034a5:	48 8b 49 10          	mov    rcx,QWORD PTR [rcx+0x10]
 80034a9:	48 89 4d c0          	mov    QWORD PTR [rbp-0x40],rcx
 80034ad:	c7 45 c8 71 81 80 a9 	mov    DWORD PTR [rbp-0x38],0xa9808171
 80034b4:	48 89 75 d0          	mov    QWORD PTR [rbp-0x30],rsi
 80034b8:	48 89 55 d8          	mov    QWORD PTR [rbp-0x28],rdx
 80034bc:	48 89 4d e0          	mov    QWORD PTR [rbp-0x20],rcx
 80034c0:	48 83 ec 20          	sub    rsp,0x20
 80034c4:	48 89 e1             	mov    rcx,rsp
 80034c7:	48 8b 55 e0          	mov    rdx,QWORD PTR [rbp-0x20]
 80034cb:	48 89 51 18          	mov    QWORD PTR [rcx+0x18],rdx
 80034cf:	48 8b 55 d8          	mov    rdx,QWORD PTR [rbp-0x28]
 80034d3:	48 89 51 10          	mov    QWORD PTR [rcx+0x10],rdx
 80034d7:	48 8b 55 d0          	mov    rdx,QWORD PTR [rbp-0x30]
 80034db:	48 89 51 08          	mov    QWORD PTR [rcx+0x8],rdx
 80034df:	48 89 c3             	mov    rbx,rax
 80034e2:	48 8b 45 c8          	mov    rax,QWORD PTR [rbp-0x38]
 80034e6:	48 89 01             	mov    QWORD PTR [rcx],rax
 80034e9:	e8 06 f2 ff ff       	call   80026f4 <encoding.utf8.valid>
 80034ee:	89 c1                	mov    ecx,eax
 80034f0:	48 89 d8             	mov    rax,rbx
 80034f3:	48 83 ec e0          	sub    rsp,0xffffffffffffffe0
 80034f7:	83 f9 00             	cmp    ecx,0x0
 80034fa:	75 48                	jne    8003544 <strings.fromutf8+0xee>
 80034fc:	48 8d 0d 7d db ff 77 	lea    rcx,[rip+0x77ffdb7d]        # 80001080 <strdata.2438>
 8003503:	48 89 4d e8          	mov    QWORD PTR [rbp-0x18],rcx
 8003507:	48 c7 45 f0 52 00 00 	mov    QWORD PTR [rbp-0x10],0x52
 800350e:	00 
 800350f:	48 c7 45 f8 52 00 00 	mov    QWORD PTR [rbp-0x8],0x52
 8003516:	00 
 8003517:	48 83 ec 20          	sub    rsp,0x20
 800351b:	48 89 e1             	mov    rcx,rsp
 800351e:	48 8b 55 f8          	mov    rdx,QWORD PTR [rbp-0x8]
 8003522:	48 89 51 10          	mov    QWORD PTR [rcx+0x10],rdx
 8003526:	48 8b 55 f0          	mov    rdx,QWORD PTR [rbp-0x10]
 800352a:	48 89 51 08          	mov    QWORD PTR [rcx+0x8],rdx
 800352e:	48 89 c3             	mov    rbx,rax
 8003531:	48 8b 45 e8          	mov    rax,QWORD PTR [rbp-0x18]
 8003535:	48 89 01             	mov    QWORD PTR [rcx],rax
 8003538:	e8 55 23 01 00       	call   8015892 <rt.abort>
 800353d:	48 89 d8             	mov    rax,rbx
 8003540:	48 83 ec e0          	sub    rsp,0xffffffffffffffe0
 8003544:	48 8b 4d c0          	mov    rcx,QWORD PTR [rbp-0x40]
 8003548:	48 89 48 10          	mov    QWORD PTR [rax+0x10],rcx
 800354c:	48 8b 4d b8          	mov    rcx,QWORD PTR [rbp-0x48]
 8003550:	48 89 48 08          	mov    QWORD PTR [rax+0x8],rcx
 8003554:	48 8b 4d b0          	mov    rcx,QWORD PTR [rbp-0x50]
 8003558:	48 89 08             	mov    QWORD PTR [rax],rcx
 800355b:	5b                   	pop    rbx
 800355c:	c9                   	leave  
 800355d:	c3                   	ret    

000000000800355e <strings.toutf8>:
 800355e:	55                   	push   rbp
 800355f:	48 89 e5             	mov    rbp,rsp
 8003562:	48 89 f8             	mov    rax,rdi
 8003565:	48 8b 4d 20          	mov    rcx,QWORD PTR [rbp+0x20]
 8003569:	48 89 48 10          	mov    QWORD PTR [rax+0x10],rcx
 800356d:	48 8b 4d 18          	mov    rcx,QWORD PTR [rbp+0x18]
 8003571:	48 89 48 08          	mov    QWORD PTR [rax+0x8],rcx
 8003575:	48 8b 4d 10          	mov    rcx,QWORD PTR [rbp+0x10]
 8003579:	48 89 08             	mov    QWORD PTR [rax],rcx
 800357c:	c9                   	leave  
 800357d:	c3                   	ret    

000000000800357e <errors.errno>:
 800357e:	55                   	push   rbp
 800357f:	48 89 e5             	mov    rbp,rsp
 8003582:	48 81 ec 20 02 00 00 	sub    rsp,0x220
 8003589:	53                   	push   rbx
 800358a:	41 54                	push   r12
 800358c:	48 89 fb             	mov    rbx,rdi
 800358f:	83 fe 6f             	cmp    esi,0x6f
 8003592:	0f 84 d0 03 00 00    	je     8003968 <errors.errno+0x3ea>
 8003598:	83 fe 7d             	cmp    esi,0x7d
 800359b:	0f 84 82 03 00 00    	je     8003923 <errors.errno+0x3a5>
 80035a1:	83 fe 4b             	cmp    esi,0x4b
 80035a4:	0f 84 31 03 00 00    	je     80038db <errors.errno+0x35d>
 80035aa:	83 fe 0d             	cmp    esi,0xd
 80035ad:	0f 84 e0 02 00 00    	je     8003893 <errors.errno+0x315>
 80035b3:	83 fe 16             	cmp    esi,0x16
 80035b6:	0f 84 8f 02 00 00    	je     800384b <errors.errno+0x2cd>
 80035bc:	83 fe 11             	cmp    esi,0x11
 80035bf:	0f 84 3e 02 00 00    	je     8003803 <errors.errno+0x285>
 80035c5:	83 fe 02             	cmp    esi,0x2
 80035c8:	0f 84 ed 01 00 00    	je     80037bb <errors.errno+0x23d>
 80035ce:	83 fe 3e             	cmp    esi,0x3e
 80035d1:	0f 84 9c 01 00 00    	je     8003773 <errors.errno+0x1f5>
 80035d7:	83 fe 10             	cmp    esi,0x10
 80035da:	0f 84 4b 01 00 00    	je     800372b <errors.errno+0x1ad>
 80035e0:	83 fe 04             	cmp    esi,0x4
 80035e3:	0f 84 fa 00 00 00    	je     80036e3 <errors.errno+0x165>
 80035e9:	83 fe 0b             	cmp    esi,0xb
 80035ec:	0f 84 b2 00 00 00    	je     80036a4 <errors.errno+0x126>
 80035f2:	ba 20 00 00 00       	mov    edx,0x20
 80035f7:	41 89 f4             	mov    r12d,esi
 80035fa:	be 00 00 00 00       	mov    esi,0x0
 80035ff:	48 8d 7d b8          	lea    rdi,[rbp-0x48]
 8003603:	e8 fa 2b 01 00       	call   8016202 <rt.memset>
 8003608:	44 89 e6             	mov    esi,r12d
 800360b:	48 89 d8             	mov    rax,rbx
 800360e:	48 8d 0d 9b 03 00 00 	lea    rcx,[rip+0x39b]        # 80039b0 <errors.rt_strerror>
 8003615:	48 89 4d b8          	mov    QWORD PTR [rbp-0x48],rcx
 8003619:	48 8d 0d 90 03 00 00 	lea    rcx,[rip+0x390]        # 80039b0 <errors.rt_strerror>
 8003620:	48 89 4d 98          	mov    QWORD PTR [rbp-0x68],rcx
 8003624:	48 8b 7d c0          	mov    rdi,QWORD PTR [rbp-0x40]
 8003628:	48 89 7d a0          	mov    QWORD PTR [rbp-0x60],rdi
 800362c:	48 8b 55 c8          	mov    rdx,QWORD PTR [rbp-0x38]
 8003630:	48 89 55 a8          	mov    QWORD PTR [rbp-0x58],rdx
 8003634:	48 8b 4d d0          	mov    rcx,QWORD PTR [rbp-0x30]
 8003638:	48 89 4d b0          	mov    QWORD PTR [rbp-0x50],rcx
 800363c:	89 75 a0             	mov    DWORD PTR [rbp-0x60],esi
 800363f:	c7 45 d8 7d 8d 1b 5a 	mov    DWORD PTR [rbp-0x28],0x5a1b8d7d
 8003646:	4c 8d 05 63 03 00 00 	lea    r8,[rip+0x363]        # 80039b0 <errors.rt_strerror>
 800364d:	4c 89 45 e0          	mov    QWORD PTR [rbp-0x20],r8
 8003651:	89 f6                	mov    esi,esi
 8003653:	41 b8 ff ff ff ff    	mov    r8d,0xffffffff
 8003659:	4c 21 c6             	and    rsi,r8
 800365c:	49 b8 00 00 00 00 ff 	movabs r8,0xffffffff00000000
 8003663:	ff ff ff 
 8003666:	4c 21 c7             	and    rdi,r8
 8003669:	48 09 fe             	or     rsi,rdi
 800366c:	48 89 75 e8          	mov    QWORD PTR [rbp-0x18],rsi
 8003670:	48 89 55 f0          	mov    QWORD PTR [rbp-0x10],rdx
 8003674:	48 89 4d f8          	mov    QWORD PTR [rbp-0x8],rcx
 8003678:	48 8b 4d f8          	mov    rcx,QWORD PTR [rbp-0x8]
 800367c:	48 89 48 20          	mov    QWORD PTR [rax+0x20],rcx
 8003680:	48 8b 4d f0          	mov    rcx,QWORD PTR [rbp-0x10]
 8003684:	48 89 48 18          	mov    QWORD PTR [rax+0x18],rcx
 8003688:	48 8b 4d e8          	mov    rcx,QWORD PTR [rbp-0x18]
 800368c:	48 89 48 10          	mov    QWORD PTR [rax+0x10],rcx
 8003690:	48 8b 4d e0          	mov    rcx,QWORD PTR [rbp-0x20]
 8003694:	48 89 48 08          	mov    QWORD PTR [rax+0x8],rcx
 8003698:	48 8b 4d d8          	mov    rcx,QWORD PTR [rbp-0x28]
 800369c:	48 89 08             	mov    QWORD PTR [rax],rcx
 800369f:	e9 07 03 00 00       	jmp    80039ab <errors.errno+0x42d>
 80036a4:	48 89 d8             	mov    rax,rbx
 80036a7:	c7 85 70 ff ff ff 20 	mov    DWORD PTR [rbp-0x90],0xb4924520
 80036ae:	45 92 b4 
 80036b1:	48 8b 4d 90          	mov    rcx,QWORD PTR [rbp-0x70]
 80036b5:	48 89 48 20          	mov    QWORD PTR [rax+0x20],rcx
 80036b9:	48 8b 4d 88          	mov    rcx,QWORD PTR [rbp-0x78]
 80036bd:	48 89 48 18          	mov    QWORD PTR [rax+0x18],rcx
 80036c1:	48 8b 4d 80          	mov    rcx,QWORD PTR [rbp-0x80]
 80036c5:	48 89 48 10          	mov    QWORD PTR [rax+0x10],rcx
 80036c9:	48 8b 8d 78 ff ff ff 	mov    rcx,QWORD PTR [rbp-0x88]
 80036d0:	48 89 48 08          	mov    QWORD PTR [rax+0x8],rcx
 80036d4:	48 8b 8d 70 ff ff ff 	mov    rcx,QWORD PTR [rbp-0x90]
 80036db:	48 89 08             	mov    QWORD PTR [rax],rcx
 80036de:	e9 c8 02 00 00       	jmp    80039ab <errors.errno+0x42d>
 80036e3:	48 89 d8             	mov    rax,rbx
 80036e6:	c7 85 48 ff ff ff 2a 	mov    DWORD PTR [rbp-0xb8],0x10c6bc2a
 80036ed:	bc c6 10 
 80036f0:	48 8b 8d 68 ff ff ff 	mov    rcx,QWORD PTR [rbp-0x98]
 80036f7:	48 89 48 20          	mov    QWORD PTR [rax+0x20],rcx
 80036fb:	48 8b 8d 60 ff ff ff 	mov    rcx,QWORD PTR [rbp-0xa0]
 8003702:	48 89 48 18          	mov    QWORD PTR [rax+0x18],rcx
 8003706:	48 8b 8d 58 ff ff ff 	mov    rcx,QWORD PTR [rbp-0xa8]
 800370d:	48 89 48 10          	mov    QWORD PTR [rax+0x10],rcx
 8003711:	48 8b 8d 50 ff ff ff 	mov    rcx,QWORD PTR [rbp-0xb0]
 8003718:	48 89 48 08          	mov    QWORD PTR [rax+0x8],rcx
 800371c:	48 8b 8d 48 ff ff ff 	mov    rcx,QWORD PTR [rbp-0xb8]
 8003723:	48 89 08             	mov    QWORD PTR [rax],rcx
 8003726:	e9 80 02 00 00       	jmp    80039ab <errors.errno+0x42d>
 800372b:	48 89 d8             	mov    rax,rbx
 800372e:	c7 85 20 ff ff ff 77 	mov    DWORD PTR [rbp-0xe0],0x69295677
 8003735:	56 29 69 
 8003738:	48 8b 8d 40 ff ff ff 	mov    rcx,QWORD PTR [rbp-0xc0]
 800373f:	48 89 48 20          	mov    QWORD PTR [rax+0x20],rcx
 8003743:	48 8b 8d 38 ff ff ff 	mov    rcx,QWORD PTR [rbp-0xc8]
 800374a:	48 89 48 18          	mov    QWORD PTR [rax+0x18],rcx
 800374e:	48 8b 8d 30 ff ff ff 	mov    rcx,QWORD PTR [rbp-0xd0]
 8003755:	48 89 48 10          	mov    QWORD PTR [rax+0x10],rcx
 8003759:	48 8b 8d 28 ff ff ff 	mov    rcx,QWORD PTR [rbp-0xd8]
 8003760:	48 89 48 08          	mov    QWORD PTR [rax+0x8],rcx
 8003764:	48 8b 8d 20 ff ff ff 	mov    rcx,QWORD PTR [rbp-0xe0]
 800376b:	48 89 08             	mov    QWORD PTR [rax],rcx
 800376e:	e9 38 02 00 00       	jmp    80039ab <errors.errno+0x42d>
 8003773:	48 89 d8             	mov    rax,rbx
 8003776:	c7 85 f8 fe ff ff e7 	mov    DWORD PTR [rbp-0x108],0x1c2d92e7
 800377d:	92 2d 1c 
 8003780:	48 8b 8d 18 ff ff ff 	mov    rcx,QWORD PTR [rbp-0xe8]
 8003787:	48 89 48 20          	mov    QWORD PTR [rax+0x20],rcx
 800378b:	48 8b 8d 10 ff ff ff 	mov    rcx,QWORD PTR [rbp-0xf0]
 8003792:	48 89 48 18          	mov    QWORD PTR [rax+0x18],rcx
 8003796:	48 8b 8d 08 ff ff ff 	mov    rcx,QWORD PTR [rbp-0xf8]
 800379d:	48 89 48 10          	mov    QWORD PTR [rax+0x10],rcx
 80037a1:	48 8b 8d 00 ff ff ff 	mov    rcx,QWORD PTR [rbp-0x100]
 80037a8:	48 89 48 08          	mov    QWORD PTR [rax+0x8],rcx
 80037ac:	48 8b 8d f8 fe ff ff 	mov    rcx,QWORD PTR [rbp-0x108]
 80037b3:	48 89 08             	mov    QWORD PTR [rax],rcx
 80037b6:	e9 f0 01 00 00       	jmp    80039ab <errors.errno+0x42d>
 80037bb:	48 89 d8             	mov    rax,rbx
 80037be:	c7 85 d0 fe ff ff 99 	mov    DWORD PTR [rbp-0x130],0xa8a7b799
 80037c5:	b7 a7 a8 
 80037c8:	48 8b 8d f0 fe ff ff 	mov    rcx,QWORD PTR [rbp-0x110]
 80037cf:	48 89 48 20          	mov    QWORD PTR [rax+0x20],rcx
 80037d3:	48 8b 8d e8 fe ff ff 	mov    rcx,QWORD PTR [rbp-0x118]
 80037da:	48 89 48 18          	mov    QWORD PTR [rax+0x18],rcx
 80037de:	48 8b 8d e0 fe ff ff 	mov    rcx,QWORD PTR [rbp-0x120]
 80037e5:	48 89 48 10          	mov    QWORD PTR [rax+0x10],rcx
 80037e9:	48 8b 8d d8 fe ff ff 	mov    rcx,QWORD PTR [rbp-0x128]
 80037f0:	48 89 48 08          	mov    QWORD PTR [rax+0x8],rcx
 80037f4:	48 8b 8d d0 fe ff ff 	mov    rcx,QWORD PTR [rbp-0x130]
 80037fb:	48 89 08             	mov    QWORD PTR [rax],rcx
 80037fe:	e9 a8 01 00 00       	jmp    80039ab <errors.errno+0x42d>
 8003803:	48 89 d8             	mov    rax,rbx
 8003806:	c7 85 a8 fe ff ff be 	mov    DWORD PTR [rbp-0x158],0x7c1634be
 800380d:	34 16 7c 
 8003810:	48 8b 8d c8 fe ff ff 	mov    rcx,QWORD PTR [rbp-0x138]
 8003817:	48 89 48 20          	mov    QWORD PTR [rax+0x20],rcx
 800381b:	48 8b 8d c0 fe ff ff 	mov    rcx,QWORD PTR [rbp-0x140]
 8003822:	48 89 48 18          	mov    QWORD PTR [rax+0x18],rcx
 8003826:	48 8b 8d b8 fe ff ff 	mov    rcx,QWORD PTR [rbp-0x148]
 800382d:	48 89 48 10          	mov    QWORD PTR [rax+0x10],rcx
 8003831:	48 8b 8d b0 fe ff ff 	mov    rcx,QWORD PTR [rbp-0x150]
 8003838:	48 89 48 08          	mov    QWORD PTR [rax+0x8],rcx
 800383c:	48 8b 8d a8 fe ff ff 	mov    rcx,QWORD PTR [rbp-0x158]
 8003843:	48 89 08             	mov    QWORD PTR [rax],rcx
 8003846:	e9 60 01 00 00       	jmp    80039ab <errors.errno+0x42d>
 800384b:	48 89 d8             	mov    rax,rbx
 800384e:	c7 85 80 fe ff ff 9b 	mov    DWORD PTR [rbp-0x180],0xb3c7e99b
 8003855:	e9 c7 b3 
 8003858:	48 8b 8d a0 fe ff ff 	mov    rcx,QWORD PTR [rbp-0x160]
 800385f:	48 89 48 20          	mov    QWORD PTR [rax+0x20],rcx
 8003863:	48 8b 8d 98 fe ff ff 	mov    rcx,QWORD PTR [rbp-0x168]
 800386a:	48 89 48 18          	mov    QWORD PTR [rax+0x18],rcx
 800386e:	48 8b 8d 90 fe ff ff 	mov    rcx,QWORD PTR [rbp-0x170]
 8003875:	48 89 48 10          	mov    QWORD PTR [rax+0x10],rcx
 8003879:	48 8b 8d 88 fe ff ff 	mov    rcx,QWORD PTR [rbp-0x178]
 8003880:	48 89 48 08          	mov    QWORD PTR [rax+0x8],rcx
 8003884:	48 8b 8d 80 fe ff ff 	mov    rcx,QWORD PTR [rbp-0x180]
 800388b:	48 89 08             	mov    QWORD PTR [rax],rcx
 800388e:	e9 18 01 00 00       	jmp    80039ab <errors.errno+0x42d>
 8003893:	48 89 d8             	mov    rax,rbx
 8003896:	c7 85 58 fe ff ff d3 	mov    DWORD PTR [rbp-0x1a8],0xa1da86d3
 800389d:	86 da a1 
 80038a0:	48 8b 8d 78 fe ff ff 	mov    rcx,QWORD PTR [rbp-0x188]
 80038a7:	48 89 48 20          	mov    QWORD PTR [rax+0x20],rcx
 80038ab:	48 8b 8d 70 fe ff ff 	mov    rcx,QWORD PTR [rbp-0x190]
 80038b2:	48 89 48 18          	mov    QWORD PTR [rax+0x18],rcx
 80038b6:	48 8b 8d 68 fe ff ff 	mov    rcx,QWORD PTR [rbp-0x198]
 80038bd:	48 89 48 10          	mov    QWORD PTR [rax+0x10],rcx
 80038c1:	48 8b 8d 60 fe ff ff 	mov    rcx,QWORD PTR [rbp-0x1a0]
 80038c8:	48 89 48 08          	mov    QWORD PTR [rax+0x8],rcx
 80038cc:	48 8b 8d 58 fe ff ff 	mov    rcx,QWORD PTR [rbp-0x1a8]
 80038d3:	48 89 08             	mov    QWORD PTR [rax],rcx
 80038d6:	e9 d0 00 00 00       	jmp    80039ab <errors.errno+0x42d>
 80038db:	48 89 d8             	mov    rax,rbx
 80038de:	c7 85 30 fe ff ff d8 	mov    DWORD PTR [rbp-0x1d0],0x3cca97d8
 80038e5:	97 ca 3c 
 80038e8:	48 8b 8d 50 fe ff ff 	mov    rcx,QWORD PTR [rbp-0x1b0]
 80038ef:	48 89 48 20          	mov    QWORD PTR [rax+0x20],rcx
 80038f3:	48 8b 8d 48 fe ff ff 	mov    rcx,QWORD PTR [rbp-0x1b8]
 80038fa:	48 89 48 18          	mov    QWORD PTR [rax+0x18],rcx
 80038fe:	48 8b 8d 40 fe ff ff 	mov    rcx,QWORD PTR [rbp-0x1c0]
 8003905:	48 89 48 10          	mov    QWORD PTR [rax+0x10],rcx
 8003909:	48 8b 8d 38 fe ff ff 	mov    rcx,QWORD PTR [rbp-0x1c8]
 8003910:	48 89 48 08          	mov    QWORD PTR [rax+0x8],rcx
 8003914:	48 8b 8d 30 fe ff ff 	mov    rcx,QWORD PTR [rbp-0x1d0]
 800391b:	48 89 08             	mov    QWORD PTR [rax],rcx
 800391e:	e9 88 00 00 00       	jmp    80039ab <errors.errno+0x42d>
 8003923:	48 89 d8             	mov    rax,rbx
 8003926:	c7 85 08 fe ff ff c3 	mov    DWORD PTR [rbp-0x1f8],0x585f7dc3
 800392d:	7d 5f 58 
 8003930:	48 8b 8d 28 fe ff ff 	mov    rcx,QWORD PTR [rbp-0x1d8]
 8003937:	48 89 48 20          	mov    QWORD PTR [rax+0x20],rcx
 800393b:	48 8b 8d 20 fe ff ff 	mov    rcx,QWORD PTR [rbp-0x1e0]
 8003942:	48 89 48 18          	mov    QWORD PTR [rax+0x18],rcx
 8003946:	48 8b 8d 18 fe ff ff 	mov    rcx,QWORD PTR [rbp-0x1e8]
 800394d:	48 89 48 10          	mov    QWORD PTR [rax+0x10],rcx
 8003951:	48 8b 8d 10 fe ff ff 	mov    rcx,QWORD PTR [rbp-0x1f0]
 8003958:	48 89 48 08          	mov    QWORD PTR [rax+0x8],rcx
 800395c:	48 8b 8d 08 fe ff ff 	mov    rcx,QWORD PTR [rbp-0x1f8]
 8003963:	48 89 08             	mov    QWORD PTR [rax],rcx
 8003966:	eb 43                	jmp    80039ab <errors.errno+0x42d>
 8003968:	48 89 d8             	mov    rax,rbx
 800396b:	c7 85 e0 fd ff ff 90 	mov    DWORD PTR [rbp-0x220],0x4ed03090
 8003972:	30 d0 4e 
 8003975:	48 8b 8d 00 fe ff ff 	mov    rcx,QWORD PTR [rbp-0x200]
 800397c:	48 89 48 20          	mov    QWORD PTR [rax+0x20],rcx
 8003980:	48 8b 8d f8 fd ff ff 	mov    rcx,QWORD PTR [rbp-0x208]
 8003987:	48 89 48 18          	mov    QWORD PTR [rax+0x18],rcx
 800398b:	48 8b 8d f0 fd ff ff 	mov    rcx,QWORD PTR [rbp-0x210]
 8003992:	48 89 48 10          	mov    QWORD PTR [rax+0x10],rcx
 8003996:	48 8b 8d e8 fd ff ff 	mov    rcx,QWORD PTR [rbp-0x218]
 800399d:	48 89 48 08          	mov    QWORD PTR [rax+0x8],rcx
 80039a1:	48 8b 8d e0 fd ff ff 	mov    rcx,QWORD PTR [rbp-0x220]
 80039a8:	48 89 08             	mov    QWORD PTR [rax],rcx
 80039ab:	41 5c                	pop    r12
 80039ad:	5b                   	pop    rbx
 80039ae:	c9                   	leave  
 80039af:	c3                   	ret    

00000000080039b0 <errors.rt_strerror>:
 80039b0:	55                   	push   rbp
 80039b1:	48 89 e5             	mov    rbp,rsp
 80039b4:	48 83 ec 28          	sub    rsp,0x28
 80039b8:	53                   	push   rbx
 80039b9:	48 89 fb             	mov    rbx,rdi
 80039bc:	8b 36                	mov    esi,DWORD PTR [rsi]
 80039be:	48 8d 7d e8          	lea    rdi,[rbp-0x18]
 80039c2:	e8 f8 d2 00 00       	call   8010cbf <rt.strerror>
 80039c7:	48 89 c1             	mov    rcx,rax
 80039ca:	48 89 d8             	mov    rax,rbx
 80039cd:	48 8b 51 10          	mov    rdx,QWORD PTR [rcx+0x10]
 80039d1:	48 89 50 10          	mov    QWORD PTR [rax+0x10],rdx
 80039d5:	48 8b 51 08          	mov    rdx,QWORD PTR [rcx+0x8]
 80039d9:	48 89 50 08          	mov    QWORD PTR [rax+0x8],rdx
 80039dd:	48 8b 09             	mov    rcx,QWORD PTR [rcx]
 80039e0:	48 89 08             	mov    QWORD PTR [rax],rcx
 80039e3:	5b                   	pop    rbx
 80039e4:	c9                   	leave  
 80039e5:	c3                   	ret    

00000000080039e6 <io.fdopen>:
 80039e6:	55                   	push   rbp
 80039e7:	48 89 e5             	mov    rbp,rsp
 80039ea:	89 f8                	mov    eax,edi
 80039ec:	c9                   	leave  
 80039ed:	c3                   	ret    

00000000080039ee <io.fd_read>:
 80039ee:	55                   	push   rbp
 80039ef:	48 89 e5             	mov    rbp,rsp
 80039f2:	48 81 ec e8 00 00 00 	sub    rsp,0xe8
 80039f9:	53                   	push   rbx
 80039fa:	48 89 fb             	mov    rbx,rdi
 80039fd:	89 f7                	mov    edi,esi
 80039ff:	48 8b 75 10          	mov    rsi,QWORD PTR [rbp+0x10]
 8003a03:	48 8b 55 18          	mov    rdx,QWORD PTR [rbp+0x18]
 8003a07:	e8 6e 05 01 00       	call   8013f7a <rt.read>
 8003a0c:	48 89 d1             	mov    rcx,rdx
 8003a0f:	48 89 c2             	mov    rdx,rax
 8003a12:	48 89 d8             	mov    rax,rbx
 8003a15:	48 89 95 20 ff ff ff 	mov    QWORD PTR [rbp-0xe0],rdx
 8003a1c:	48 89 8d 28 ff ff ff 	mov    QWORD PTR [rbp-0xd8],rcx
 8003a23:	8b 8d 20 ff ff ff    	mov    ecx,DWORD PTR [rbp-0xe0]
 8003a29:	81 f9 8b c0 03 e0    	cmp    ecx,0xe003c08b
 8003a2f:	0f 84 de 00 00 00    	je     8003b13 <io.fd_read+0x125>
 8003a35:	81 f9 7e e5 8c 67    	cmp    ecx,0x678ce57e
 8003a3b:	74 4c                	je     8003a89 <io.fd_read+0x9b>
 8003a3d:	48 8d 05 94 d6 ff 77 	lea    rax,[rip+0x77ffd694]        # 800010d8 <strdata.78>
 8003a44:	48 89 45 e8          	mov    QWORD PTR [rbp-0x18],rax
 8003a48:	48 c7 45 f0 2b 00 00 	mov    QWORD PTR [rbp-0x10],0x2b
 8003a4f:	00 
 8003a50:	48 c7 45 f8 2b 00 00 	mov    QWORD PTR [rbp-0x8],0x2b
 8003a57:	00 
 8003a58:	48 83 ec 20          	sub    rsp,0x20
 8003a5c:	48 89 e1             	mov    rcx,rsp
 8003a5f:	48 8b 45 f8          	mov    rax,QWORD PTR [rbp-0x8]
 8003a63:	48 89 41 10          	mov    QWORD PTR [rcx+0x10],rax
 8003a67:	48 8b 45 f0          	mov    rax,QWORD PTR [rbp-0x10]
 8003a6b:	48 89 41 08          	mov    QWORD PTR [rcx+0x8],rax
 8003a6f:	48 8b 45 e8          	mov    rax,QWORD PTR [rbp-0x18]
 8003a73:	48 89 01             	mov    QWORD PTR [rcx],rax
 8003a76:	bf 04 00 00 00       	mov    edi,0x4
 8003a7b:	e8 3f 1e 01 00       	call   80158bf <rt.abort_fixed>
 8003a80:	48 83 ec e0          	sub    rsp,0xffffffffffffffe0
 8003a84:	e9 20 01 00 00       	jmp    8003ba9 <io.fd_read+0x1bb>
 8003a89:	48 8b 8d 28 ff ff ff 	mov    rcx,QWORD PTR [rbp-0xd8]
 8003a90:	48 83 f9 00          	cmp    rcx,0x0
 8003a94:	74 3f                	je     8003ad5 <io.fd_read+0xe7>
 8003a96:	c7 45 b8 7e e5 8c 67 	mov    DWORD PTR [rbp-0x48],0x678ce57e
 8003a9d:	48 89 4d c0          	mov    QWORD PTR [rbp-0x40],rcx
 8003aa1:	48 8b 4d e0          	mov    rcx,QWORD PTR [rbp-0x20]
 8003aa5:	48 89 48 28          	mov    QWORD PTR [rax+0x28],rcx
 8003aa9:	48 8b 4d d8          	mov    rcx,QWORD PTR [rbp-0x28]
 8003aad:	48 89 48 20          	mov    QWORD PTR [rax+0x20],rcx
 8003ab1:	48 8b 4d d0          	mov    rcx,QWORD PTR [rbp-0x30]
 8003ab5:	48 89 48 18          	mov    QWORD PTR [rax+0x18],rcx
 8003ab9:	48 8b 4d c8          	mov    rcx,QWORD PTR [rbp-0x38]
 8003abd:	48 89 48 10          	mov    QWORD PTR [rax+0x10],rcx
 8003ac1:	48 8b 4d c0          	mov    rcx,QWORD PTR [rbp-0x40]
 8003ac5:	48 89 48 08          	mov    QWORD PTR [rax+0x8],rcx
 8003ac9:	48 8b 4d b8          	mov    rcx,QWORD PTR [rbp-0x48]
 8003acd:	48 89 08             	mov    QWORD PTR [rax],rcx
 8003ad0:	e9 d4 00 00 00       	jmp    8003ba9 <io.fd_read+0x1bb>
 8003ad5:	c7 45 88 55 bf 22 60 	mov    DWORD PTR [rbp-0x78],0x6022bf55
 8003adc:	48 8b 4d b0          	mov    rcx,QWORD PTR [rbp-0x50]
 8003ae0:	48 89 48 28          	mov    QWORD PTR [rax+0x28],rcx
 8003ae4:	48 8b 4d a8          	mov    rcx,QWORD PTR [rbp-0x58]
 8003ae8:	48 89 48 20          	mov    QWORD PTR [rax+0x20],rcx
 8003aec:	48 8b 4d a0          	mov    rcx,QWORD PTR [rbp-0x60]
 8003af0:	48 89 48 18          	mov    QWORD PTR [rax+0x18],rcx
 8003af4:	48 8b 4d 98          	mov    rcx,QWORD PTR [rbp-0x68]
 8003af8:	48 89 48 10          	mov    QWORD PTR [rax+0x10],rcx
 8003afc:	48 8b 4d 90          	mov    rcx,QWORD PTR [rbp-0x70]
 8003b00:	48 89 48 08          	mov    QWORD PTR [rax+0x8],rcx
 8003b04:	48 8b 4d 88          	mov    rcx,QWORD PTR [rbp-0x78]
 8003b08:	48 89 08             	mov    QWORD PTR [rax],rcx
 8003b0b:	48 89 c3             	mov    rbx,rax
 8003b0e:	e9 96 00 00 00       	jmp    8003ba9 <io.fd_read+0x1bb>
 8003b13:	48 89 c3             	mov    rbx,rax
 8003b16:	8b b5 28 ff ff ff    	mov    esi,DWORD PTR [rbp-0xd8]
 8003b1c:	c7 85 58 ff ff ff 0f 	mov    DWORD PTR [rbp-0xa8],0x49e8ac0f
 8003b23:	ac e8 49 
 8003b26:	48 8d bd 30 ff ff ff 	lea    rdi,[rbp-0xd0]
 8003b2d:	e8 4c fa ff ff       	call   800357e <errors.errno>
 8003b32:	48 89 c1             	mov    rcx,rax
 8003b35:	48 89 d8             	mov    rax,rbx
 8003b38:	48 8b 11             	mov    rdx,QWORD PTR [rcx]
 8003b3b:	48 89 95 60 ff ff ff 	mov    QWORD PTR [rbp-0xa0],rdx
 8003b42:	48 8b 51 08          	mov    rdx,QWORD PTR [rcx+0x8]
 8003b46:	48 89 95 68 ff ff ff 	mov    QWORD PTR [rbp-0x98],rdx
 8003b4d:	48 8b 51 10          	mov    rdx,QWORD PTR [rcx+0x10]
 8003b51:	48 89 95 70 ff ff ff 	mov    QWORD PTR [rbp-0x90],rdx
 8003b58:	48 8b 51 18          	mov    rdx,QWORD PTR [rcx+0x18]
 8003b5c:	48 89 95 78 ff ff ff 	mov    QWORD PTR [rbp-0x88],rdx
 8003b63:	48 8b 49 20          	mov    rcx,QWORD PTR [rcx+0x20]
 8003b67:	48 89 4d 80          	mov    QWORD PTR [rbp-0x80],rcx
 8003b6b:	48 8b 4d 80          	mov    rcx,QWORD PTR [rbp-0x80]
 8003b6f:	48 89 48 28          	mov    QWORD PTR [rax+0x28],rcx
 8003b73:	48 8b 8d 78 ff ff ff 	mov    rcx,QWORD PTR [rbp-0x88]
 8003b7a:	48 89 48 20          	mov    QWORD PTR [rax+0x20],rcx
 8003b7e:	48 8b 8d 70 ff ff ff 	mov    rcx,QWORD PTR [rbp-0x90]
 8003b85:	48 89 48 18          	mov    QWORD PTR [rax+0x18],rcx
 8003b89:	48 8b 8d 68 ff ff ff 	mov    rcx,QWORD PTR [rbp-0x98]
 8003b90:	48 89 48 10          	mov    QWORD PTR [rax+0x10],rcx
 8003b94:	48 8b 8d 60 ff ff ff 	mov    rcx,QWORD PTR [rbp-0xa0]
 8003b9b:	48 89 48 08          	mov    QWORD PTR [rax+0x8],rcx
 8003b9f:	48 8b 8d 58 ff ff ff 	mov    rcx,QWORD PTR [rbp-0xa8]
 8003ba6:	48 89 08             	mov    QWORD PTR [rax],rcx
 8003ba9:	5b                   	pop    rbx
 8003baa:	c9                   	leave  
 8003bab:	c3                   	ret    

0000000008003bac <io.fd_write>:
 8003bac:	55                   	push   rbp
 8003bad:	48 89 e5             	mov    rbp,rsp
 8003bb0:	48 81 ec b8 00 00 00 	sub    rsp,0xb8
 8003bb7:	53                   	push   rbx
 8003bb8:	48 89 fb             	mov    rbx,rdi
 8003bbb:	89 f7                	mov    edi,esi
 8003bbd:	48 8b 75 10          	mov    rsi,QWORD PTR [rbp+0x10]
 8003bc1:	48 8b 55 18          	mov    rdx,QWORD PTR [rbp+0x18]
 8003bc5:	e8 7c 04 01 00       	call   8014046 <rt.write>
 8003bca:	48 89 d1             	mov    rcx,rdx
 8003bcd:	48 89 c2             	mov    rdx,rax
 8003bd0:	48 89 d8             	mov    rax,rbx
 8003bd3:	48 89 95 50 ff ff ff 	mov    QWORD PTR [rbp-0xb0],rdx
 8003bda:	48 89 8d 58 ff ff ff 	mov    QWORD PTR [rbp-0xa8],rcx
 8003be1:	8b 8d 50 ff ff ff    	mov    ecx,DWORD PTR [rbp-0xb0]
 8003be7:	81 f9 8b c0 03 e0    	cmp    ecx,0xe003c08b
 8003bed:	0f 84 9a 00 00 00    	je     8003c8d <io.fd_write+0xe1>
 8003bf3:	81 f9 7e e5 8c 67    	cmp    ecx,0x678ce57e
 8003bf9:	74 4c                	je     8003c47 <io.fd_write+0x9b>
 8003bfb:	48 8d 05 06 d5 ff 77 	lea    rax,[rip+0x77ffd506]        # 80001108 <strdata.129>
 8003c02:	48 89 45 e8          	mov    QWORD PTR [rbp-0x18],rax
 8003c06:	48 c7 45 f0 2b 00 00 	mov    QWORD PTR [rbp-0x10],0x2b
 8003c0d:	00 
 8003c0e:	48 c7 45 f8 2b 00 00 	mov    QWORD PTR [rbp-0x8],0x2b
 8003c15:	00 
 8003c16:	48 83 ec 20          	sub    rsp,0x20
 8003c1a:	48 89 e1             	mov    rcx,rsp
 8003c1d:	48 8b 45 f8          	mov    rax,QWORD PTR [rbp-0x8]
 8003c21:	48 89 41 10          	mov    QWORD PTR [rcx+0x10],rax
 8003c25:	48 8b 45 f0          	mov    rax,QWORD PTR [rbp-0x10]
 8003c29:	48 89 41 08          	mov    QWORD PTR [rcx+0x8],rax
 8003c2d:	48 8b 45 e8          	mov    rax,QWORD PTR [rbp-0x18]
 8003c31:	48 89 01             	mov    QWORD PTR [rcx],rax
 8003c34:	bf 04 00 00 00       	mov    edi,0x4
 8003c39:	e8 81 1c 01 00       	call   80158bf <rt.abort_fixed>
 8003c3e:	48 83 ec e0          	sub    rsp,0xffffffffffffffe0
 8003c42:	e9 be 00 00 00       	jmp    8003d05 <io.fd_write+0x159>
 8003c47:	48 8b 8d 58 ff ff ff 	mov    rcx,QWORD PTR [rbp-0xa8]
 8003c4e:	c7 45 b8 7e e5 8c 67 	mov    DWORD PTR [rbp-0x48],0x678ce57e
 8003c55:	48 89 4d c0          	mov    QWORD PTR [rbp-0x40],rcx
 8003c59:	48 8b 4d e0          	mov    rcx,QWORD PTR [rbp-0x20]
 8003c5d:	48 89 48 28          	mov    QWORD PTR [rax+0x28],rcx
 8003c61:	48 8b 4d d8          	mov    rcx,QWORD PTR [rbp-0x28]
 8003c65:	48 89 48 20          	mov    QWORD PTR [rax+0x20],rcx
 8003c69:	48 8b 4d d0          	mov    rcx,QWORD PTR [rbp-0x30]
 8003c6d:	48 89 48 18          	mov    QWORD PTR [rax+0x18],rcx
 8003c71:	48 8b 4d c8          	mov    rcx,QWORD PTR [rbp-0x38]
 8003c75:	48 89 48 10          	mov    QWORD PTR [rax+0x10],rcx
 8003c79:	48 8b 4d c0          	mov    rcx,QWORD PTR [rbp-0x40]
 8003c7d:	48 89 48 08          	mov    QWORD PTR [rax+0x8],rcx
 8003c81:	48 8b 4d b8          	mov    rcx,QWORD PTR [rbp-0x48]
 8003c85:	48 89 08             	mov    QWORD PTR [rax],rcx
 8003c88:	48 89 c3             	mov    rbx,rax
 8003c8b:	eb 78                	jmp    8003d05 <io.fd_write+0x159>
 8003c8d:	48 89 c3             	mov    rbx,rax
 8003c90:	8b b5 58 ff ff ff    	mov    esi,DWORD PTR [rbp-0xa8]
 8003c96:	c7 45 88 0f ac e8 49 	mov    DWORD PTR [rbp-0x78],0x49e8ac0f
 8003c9d:	48 8d bd 60 ff ff ff 	lea    rdi,[rbp-0xa0]
 8003ca4:	e8 d5 f8 ff ff       	call   800357e <errors.errno>
 8003ca9:	48 89 c1             	mov    rcx,rax
 8003cac:	48 89 d8             	mov    rax,rbx
 8003caf:	48 8b 11             	mov    rdx,QWORD PTR [rcx]
 8003cb2:	48 89 55 90          	mov    QWORD PTR [rbp-0x70],rdx
 8003cb6:	48 8b 51 08          	mov    rdx,QWORD PTR [rcx+0x8]
 8003cba:	48 89 55 98          	mov    QWORD PTR [rbp-0x68],rdx
 8003cbe:	48 8b 51 10          	mov    rdx,QWORD PTR [rcx+0x10]
 8003cc2:	48 89 55 a0          	mov    QWORD PTR [rbp-0x60],rdx
 8003cc6:	48 8b 51 18          	mov    rdx,QWORD PTR [rcx+0x18]
 8003cca:	48 89 55 a8          	mov    QWORD PTR [rbp-0x58],rdx
 8003cce:	48 8b 49 20          	mov    rcx,QWORD PTR [rcx+0x20]
 8003cd2:	48 89 4d b0          	mov    QWORD PTR [rbp-0x50],rcx
 8003cd6:	48 8b 4d b0          	mov    rcx,QWORD PTR [rbp-0x50]
 8003cda:	48 89 48 28          	mov    QWORD PTR [rax+0x28],rcx
 8003cde:	48 8b 4d a8          	mov    rcx,QWORD PTR [rbp-0x58]
 8003ce2:	48 89 48 20          	mov    QWORD PTR [rax+0x20],rcx
 8003ce6:	48 8b 4d a0          	mov    rcx,QWORD PTR [rbp-0x60]
 8003cea:	48 89 48 18          	mov    QWORD PTR [rax+0x18],rcx
 8003cee:	48 8b 4d 98          	mov    rcx,QWORD PTR [rbp-0x68]
 8003cf2:	48 89 48 10          	mov    QWORD PTR [rax+0x10],rcx
 8003cf6:	48 8b 4d 90          	mov    rcx,QWORD PTR [rbp-0x70]
 8003cfa:	48 89 48 08          	mov    QWORD PTR [rax+0x8],rcx
 8003cfe:	48 8b 4d 88          	mov    rcx,QWORD PTR [rbp-0x78]
 8003d02:	48 89 08             	mov    QWORD PTR [rax],rcx
 8003d05:	5b                   	pop    rbx
 8003d06:	c9                   	leave  
 8003d07:	c3                   	ret    

0000000008003d08 <io.fd_close>:
 8003d08:	55                   	push   rbp
 8003d09:	48 89 e5             	mov    rbp,rsp
 8003d0c:	48 83 ec 40          	sub    rsp,0x40
 8003d10:	e8 01 15 01 00       	call   8015216 <rt.close>
 8003d15:	48 89 45 c8          	mov    QWORD PTR [rbp-0x38],rax
 8003d19:	8b 45 c8             	mov    eax,DWORD PTR [rbp-0x38]
 8003d1c:	3d c6 b8 a0 97       	cmp    eax,0x97a0b8c6
 8003d21:	0f 84 90 00 00 00    	je     8003db7 <io.fd_close+0xaf>
 8003d27:	3d 8b c0 03 e0       	cmp    eax,0xe003c08b
 8003d2c:	75 42                	jne    8003d70 <io.fd_close+0x68>
 8003d2e:	48 8d 05 03 d4 ff 77 	lea    rax,[rip+0x77ffd403]        # 80001138 <strdata.157>
 8003d35:	48 89 45 d0          	mov    QWORD PTR [rbp-0x30],rax
 8003d39:	48 c7 45 d8 4e 00 00 	mov    QWORD PTR [rbp-0x28],0x4e
 8003d40:	00 
 8003d41:	48 c7 45 e0 4e 00 00 	mov    QWORD PTR [rbp-0x20],0x4e
 8003d48:	00 
 8003d49:	48 83 ec 20          	sub    rsp,0x20
 8003d4d:	48 89 e1             	mov    rcx,rsp
 8003d50:	48 8b 45 e0          	mov    rax,QWORD PTR [rbp-0x20]
 8003d54:	48 89 41 10          	mov    QWORD PTR [rcx+0x10],rax
 8003d58:	48 8b 45 d8          	mov    rax,QWORD PTR [rbp-0x28]
 8003d5c:	48 89 41 08          	mov    QWORD PTR [rcx+0x8],rax
 8003d60:	48 8b 45 d0          	mov    rax,QWORD PTR [rbp-0x30]
 8003d64:	48 89 01             	mov    QWORD PTR [rcx],rax
 8003d67:	e8 26 1b 01 00       	call   8015892 <rt.abort>
 8003d6c:	48 83 ec e0          	sub    rsp,0xffffffffffffffe0
 8003d70:	48 8d 05 11 d4 ff 77 	lea    rax,[rip+0x77ffd411]        # 80001188 <strdata.161>
 8003d77:	48 89 45 e8          	mov    QWORD PTR [rbp-0x18],rax
 8003d7b:	48 c7 45 f0 2b 00 00 	mov    QWORD PTR [rbp-0x10],0x2b
 8003d82:	00 
 8003d83:	48 c7 45 f8 2b 00 00 	mov    QWORD PTR [rbp-0x8],0x2b
 8003d8a:	00 
 8003d8b:	48 83 ec 20          	sub    rsp,0x20
 8003d8f:	48 89 e1             	mov    rcx,rsp
 8003d92:	48 8b 45 f8          	mov    rax,QWORD PTR [rbp-0x8]
 8003d96:	48 89 41 10          	mov    QWORD PTR [rcx+0x10],rax
 8003d9a:	48 8b 45 f0          	mov    rax,QWORD PTR [rbp-0x10]
 8003d9e:	48 89 41 08          	mov    QWORD PTR [rcx+0x8],rax
 8003da2:	48 8b 45 e8          	mov    rax,QWORD PTR [rbp-0x18]
 8003da6:	48 89 01             	mov    QWORD PTR [rcx],rax
 8003da9:	bf 04 00 00 00       	mov    edi,0x4
 8003dae:	e8 0c 1b 01 00       	call   80158bf <rt.abort_fixed>
 8003db3:	48 83 ec e0          	sub    rsp,0xffffffffffffffe0
 8003db7:	c9                   	leave  
 8003db8:	c3                   	ret    

0000000008003db9 <io.empty_read>:
 8003db9:	55                   	push   rbp
 8003dba:	48 89 e5             	mov    rbp,rsp
 8003dbd:	48 83 ec 30          	sub    rsp,0x30
 8003dc1:	48 89 f8             	mov    rax,rdi
 8003dc4:	c7 45 d0 55 bf 22 60 	mov    DWORD PTR [rbp-0x30],0x6022bf55
 8003dcb:	48 8b 4d f8          	mov    rcx,QWORD PTR [rbp-0x8]
 8003dcf:	48 89 48 28          	mov    QWORD PTR [rax+0x28],rcx
 8003dd3:	48 8b 4d f0          	mov    rcx,QWORD PTR [rbp-0x10]
 8003dd7:	48 89 48 20          	mov    QWORD PTR [rax+0x20],rcx
 8003ddb:	48 8b 4d e8          	mov    rcx,QWORD PTR [rbp-0x18]
 8003ddf:	48 89 48 18          	mov    QWORD PTR [rax+0x18],rcx
 8003de3:	48 8b 4d e0          	mov    rcx,QWORD PTR [rbp-0x20]
 8003de7:	48 89 48 10          	mov    QWORD PTR [rax+0x10],rcx
 8003deb:	48 8b 4d d8          	mov    rcx,QWORD PTR [rbp-0x28]
 8003def:	48 89 48 08          	mov    QWORD PTR [rax+0x8],rcx
 8003df3:	48 8b 4d d0          	mov    rcx,QWORD PTR [rbp-0x30]
 8003df7:	48 89 08             	mov    QWORD PTR [rax],rcx
 8003dfa:	c9                   	leave  
 8003dfb:	c3                   	ret    

0000000008003dfc <io.empty_write>:
 8003dfc:	55                   	push   rbp
 8003dfd:	48 89 e5             	mov    rbp,rsp
 8003e00:	48 83 ec 30          	sub    rsp,0x30
 8003e04:	48 89 f8             	mov    rax,rdi
 8003e07:	c7 45 d0 7e e5 8c 67 	mov    DWORD PTR [rbp-0x30],0x678ce57e
 8003e0e:	48 8b 4d 18          	mov    rcx,QWORD PTR [rbp+0x18]
 8003e12:	48 89 4d d8          	mov    QWORD PTR [rbp-0x28],rcx
 8003e16:	48 8b 4d f8          	mov    rcx,QWORD PTR [rbp-0x8]
 8003e1a:	48 89 48 28          	mov    QWORD PTR [rax+0x28],rcx
 8003e1e:	48 8b 4d f0          	mov    rcx,QWORD PTR [rbp-0x10]
 8003e22:	48 89 48 20          	mov    QWORD PTR [rax+0x20],rcx
 8003e26:	48 8b 4d e8          	mov    rcx,QWORD PTR [rbp-0x18]
 8003e2a:	48 89 48 18          	mov    QWORD PTR [rax+0x18],rcx
 8003e2e:	48 8b 4d e0          	mov    rcx,QWORD PTR [rbp-0x20]
 8003e32:	48 89 48 10          	mov    QWORD PTR [rax+0x10],rcx
 8003e36:	48 8b 4d d8          	mov    rcx,QWORD PTR [rbp-0x28]
 8003e3a:	48 89 48 08          	mov    QWORD PTR [rax+0x8],rcx
 8003e3e:	48 8b 4d d0          	mov    rcx,QWORD PTR [rbp-0x30]
 8003e42:	48 89 08             	mov    QWORD PTR [rax],rcx
 8003e45:	c9                   	leave  
 8003e46:	c3                   	ret    

0000000008003e47 <io.read>:
 8003e47:	55                   	push   rbp
 8003e48:	48 89 e5             	mov    rbp,rsp
 8003e4b:	48 81 ec 98 00 00 00 	sub    rsp,0x98
 8003e52:	53                   	push   rbx
 8003e53:	48 89 f8             	mov    rax,rdi
 8003e56:	48 89 75 d8          	mov    QWORD PTR [rbp-0x28],rsi
 8003e5a:	48 89 55 e0          	mov    QWORD PTR [rbp-0x20],rdx
 8003e5e:	8b 4d d8             	mov    ecx,DWORD PTR [rbp-0x28]
 8003e61:	81 f9 5b d9 d4 94    	cmp    ecx,0x94d4d95b
 8003e67:	0f 84 bc 00 00 00    	je     8003f29 <io.read+0xe2>
 8003e6d:	81 f9 9d ae b4 33    	cmp    ecx,0x33b4ae9d
 8003e73:	74 4c                	je     8003ec1 <io.read+0x7a>
 8003e75:	48 8d 05 74 d3 ff 77 	lea    rax,[rip+0x77ffd374]        # 800011f0 <strdata.1051>
 8003e7c:	48 89 45 e8          	mov    QWORD PTR [rbp-0x18],rax
 8003e80:	48 c7 45 f0 26 00 00 	mov    QWORD PTR [rbp-0x10],0x26
 8003e87:	00 
 8003e88:	48 c7 45 f8 26 00 00 	mov    QWORD PTR [rbp-0x8],0x26
 8003e8f:	00 
 8003e90:	48 83 ec 20          	sub    rsp,0x20
 8003e94:	48 89 e1             	mov    rcx,rsp
 8003e97:	48 8b 45 f8          	mov    rax,QWORD PTR [rbp-0x8]
 8003e9b:	48 89 41 10          	mov    QWORD PTR [rcx+0x10],rax
 8003e9f:	48 8b 45 f0          	mov    rax,QWORD PTR [rbp-0x10]
 8003ea3:	48 89 41 08          	mov    QWORD PTR [rcx+0x8],rax
 8003ea7:	48 8b 45 e8          	mov    rax,QWORD PTR [rbp-0x18]
 8003eab:	48 89 01             	mov    QWORD PTR [rcx],rax
 8003eae:	bf 04 00 00 00       	mov    edi,0x4
 8003eb3:	e8 07 1a 01 00       	call   80158bf <rt.abort_fixed>
 8003eb8:	48 83 ec e0          	sub    rsp,0xffffffffffffffe0
 8003ebc:	e9 d0 00 00 00       	jmp    8003f91 <io.read+0x14a>
 8003ec1:	48 8b 75 e0          	mov    rsi,QWORD PTR [rbp-0x20]
 8003ec5:	48 83 ec 20          	sub    rsp,0x20
 8003ec9:	48 89 e1             	mov    rcx,rsp
 8003ecc:	48 8b 55 20          	mov    rdx,QWORD PTR [rbp+0x20]
 8003ed0:	48 89 51 10          	mov    QWORD PTR [rcx+0x10],rdx
 8003ed4:	48 8b 55 18          	mov    rdx,QWORD PTR [rbp+0x18]
 8003ed8:	48 89 51 08          	mov    QWORD PTR [rcx+0x8],rdx
 8003edc:	48 89 c3             	mov    rbx,rax
 8003edf:	48 8b 45 10          	mov    rax,QWORD PTR [rbp+0x10]
 8003ee3:	48 89 01             	mov    QWORD PTR [rcx],rax
 8003ee6:	48 8d 7d a8          	lea    rdi,[rbp-0x58]
 8003eea:	e8 db 03 00 00       	call   80042ca <io.st_read>
 8003eef:	48 89 c1             	mov    rcx,rax
 8003ef2:	48 89 d8             	mov    rax,rbx
 8003ef5:	48 83 ec e0          	sub    rsp,0xffffffffffffffe0
 8003ef9:	48 8b 51 28          	mov    rdx,QWORD PTR [rcx+0x28]
 8003efd:	48 89 50 28          	mov    QWORD PTR [rax+0x28],rdx
 8003f01:	48 8b 51 20          	mov    rdx,QWORD PTR [rcx+0x20]
 8003f05:	48 89 50 20          	mov    QWORD PTR [rax+0x20],rdx
 8003f09:	48 8b 51 18          	mov    rdx,QWORD PTR [rcx+0x18]
 8003f0d:	48 89 50 18          	mov    QWORD PTR [rax+0x18],rdx
 8003f11:	48 8b 51 10          	mov    rdx,QWORD PTR [rcx+0x10]
 8003f15:	48 89 50 10          	mov    QWORD PTR [rax+0x10],rdx
 8003f19:	48 8b 51 08          	mov    rdx,QWORD PTR [rcx+0x8]
 8003f1d:	48 89 50 08          	mov    QWORD PTR [rax+0x8],rdx
 8003f21:	48 8b 09             	mov    rcx,QWORD PTR [rcx]
 8003f24:	48 89 08             	mov    QWORD PTR [rax],rcx
 8003f27:	eb 68                	jmp    8003f91 <io.read+0x14a>
 8003f29:	8b 75 e0             	mov    esi,DWORD PTR [rbp-0x20]
 8003f2c:	48 83 ec 20          	sub    rsp,0x20
 8003f30:	48 89 e1             	mov    rcx,rsp
 8003f33:	48 8b 55 20          	mov    rdx,QWORD PTR [rbp+0x20]
 8003f37:	48 89 51 10          	mov    QWORD PTR [rcx+0x10],rdx
 8003f3b:	48 8b 55 18          	mov    rdx,QWORD PTR [rbp+0x18]
 8003f3f:	48 89 51 08          	mov    QWORD PTR [rcx+0x8],rdx
 8003f43:	48 89 c3             	mov    rbx,rax
 8003f46:	48 8b 45 10          	mov    rax,QWORD PTR [rbp+0x10]
 8003f4a:	48 89 01             	mov    QWORD PTR [rcx],rax
 8003f4d:	48 8d bd 78 ff ff ff 	lea    rdi,[rbp-0x88]
 8003f54:	e8 95 fa ff ff       	call   80039ee <io.fd_read>
 8003f59:	48 89 c1             	mov    rcx,rax
 8003f5c:	48 89 d8             	mov    rax,rbx
 8003f5f:	48 83 ec e0          	sub    rsp,0xffffffffffffffe0
 8003f63:	48 8b 51 28          	mov    rdx,QWORD PTR [rcx+0x28]
 8003f67:	48 89 50 28          	mov    QWORD PTR [rax+0x28],rdx
 8003f6b:	48 8b 51 20          	mov    rdx,QWORD PTR [rcx+0x20]
 8003f6f:	48 89 50 20          	mov    QWORD PTR [rax+0x20],rdx
 8003f73:	48 8b 51 18          	mov    rdx,QWORD PTR [rcx+0x18]
 8003f77:	48 89 50 18          	mov    QWORD PTR [rax+0x18],rdx
 8003f7b:	48 8b 51 10          	mov    rdx,QWORD PTR [rcx+0x10]
 8003f7f:	48 89 50 10          	mov    QWORD PTR [rax+0x10],rdx
 8003f83:	48 8b 51 08          	mov    rdx,QWORD PTR [rcx+0x8]
 8003f87:	48 89 50 08          	mov    QWORD PTR [rax+0x8],rdx
 8003f8b:	48 8b 09             	mov    rcx,QWORD PTR [rcx]
 8003f8e:	48 89 08             	mov    QWORD PTR [rax],rcx
 8003f91:	5b                   	pop    rbx
 8003f92:	c9                   	leave  
 8003f93:	c3                   	ret    

0000000008003f94 <io.write>:
 8003f94:	55                   	push   rbp
 8003f95:	48 89 e5             	mov    rbp,rsp
 8003f98:	48 81 ec 98 00 00 00 	sub    rsp,0x98
 8003f9f:	53                   	push   rbx
 8003fa0:	48 89 f8             	mov    rax,rdi
 8003fa3:	48 89 75 d8          	mov    QWORD PTR [rbp-0x28],rsi
 8003fa7:	48 89 55 e0          	mov    QWORD PTR [rbp-0x20],rdx
 8003fab:	8b 4d d8             	mov    ecx,DWORD PTR [rbp-0x28]
 8003fae:	81 f9 5b d9 d4 94    	cmp    ecx,0x94d4d95b
 8003fb4:	0f 84 b7 00 00 00    	je     8004071 <io.write+0xdd>
 8003fba:	81 f9 9d ae b4 33    	cmp    ecx,0x33b4ae9d
 8003fc0:	74 47                	je     8004009 <io.write+0x75>
 8003fc2:	48 8d 05 4f d2 ff 77 	lea    rax,[rip+0x77ffd24f]        # 80001218 <strdata.1089>
 8003fc9:	48 89 45 e8          	mov    QWORD PTR [rbp-0x18],rax
 8003fcd:	48 c7 45 f0 38 00 00 	mov    QWORD PTR [rbp-0x10],0x38
 8003fd4:	00 
 8003fd5:	48 c7 45 f8 38 00 00 	mov    QWORD PTR [rbp-0x8],0x38
 8003fdc:	00 
 8003fdd:	48 83 ec 20          	sub    rsp,0x20
 8003fe1:	48 89 e1             	mov    rcx,rsp
 8003fe4:	48 8b 45 f8          	mov    rax,QWORD PTR [rbp-0x8]
 8003fe8:	48 89 41 10          	mov    QWORD PTR [rcx+0x10],rax
 8003fec:	48 8b 45 f0          	mov    rax,QWORD PTR [rbp-0x10]
 8003ff0:	48 89 41 08          	mov    QWORD PTR [rcx+0x8],rax
 8003ff4:	48 8b 45 e8          	mov    rax,QWORD PTR [rbp-0x18]
 8003ff8:	48 89 01             	mov    QWORD PTR [rcx],rax
 8003ffb:	e8 92 18 01 00       	call   8015892 <rt.abort>
 8004000:	48 83 ec e0          	sub    rsp,0xffffffffffffffe0
 8004004:	e9 d0 00 00 00       	jmp    80040d9 <io.write+0x145>
 8004009:	48 8b 75 e0          	mov    rsi,QWORD PTR [rbp-0x20]
 800400d:	48 83 ec 20          	sub    rsp,0x20
 8004011:	48 89 e1             	mov    rcx,rsp
 8004014:	48 8b 55 20          	mov    rdx,QWORD PTR [rbp+0x20]
 8004018:	48 89 51 10          	mov    QWORD PTR [rcx+0x10],rdx
 800401c:	48 8b 55 18          	mov    rdx,QWORD PTR [rbp+0x18]
 8004020:	48 89 51 08          	mov    QWORD PTR [rcx+0x8],rdx
 8004024:	48 89 c3             	mov    rbx,rax
 8004027:	48 8b 45 10          	mov    rax,QWORD PTR [rbp+0x10]
 800402b:	48 89 01             	mov    QWORD PTR [rcx],rax
 800402e:	48 8d 7d a8          	lea    rdi,[rbp-0x58]
 8004032:	e8 a5 03 00 00       	call   80043dc <io.st_write>
 8004037:	48 89 c1             	mov    rcx,rax
 800403a:	48 89 d8             	mov    rax,rbx
 800403d:	48 83 ec e0          	sub    rsp,0xffffffffffffffe0
 8004041:	48 8b 51 28          	mov    rdx,QWORD PTR [rcx+0x28]
 8004045:	48 89 50 28          	mov    QWORD PTR [rax+0x28],rdx
 8004049:	48 8b 51 20          	mov    rdx,QWORD PTR [rcx+0x20]
 800404d:	48 89 50 20          	mov    QWORD PTR [rax+0x20],rdx
 8004051:	48 8b 51 18          	mov    rdx,QWORD PTR [rcx+0x18]
 8004055:	48 89 50 18          	mov    QWORD PTR [rax+0x18],rdx
 8004059:	48 8b 51 10          	mov    rdx,QWORD PTR [rcx+0x10]
 800405d:	48 89 50 10          	mov    QWORD PTR [rax+0x10],rdx
 8004061:	48 8b 51 08          	mov    rdx,QWORD PTR [rcx+0x8]
 8004065:	48 89 50 08          	mov    QWORD PTR [rax+0x8],rdx
 8004069:	48 8b 09             	mov    rcx,QWORD PTR [rcx]
 800406c:	48 89 08             	mov    QWORD PTR [rax],rcx
 800406f:	eb 68                	jmp    80040d9 <io.write+0x145>
 8004071:	8b 75 e0             	mov    esi,DWORD PTR [rbp-0x20]
 8004074:	48 83 ec 20          	sub    rsp,0x20
 8004078:	48 89 e1             	mov    rcx,rsp
 800407b:	48 8b 55 20          	mov    rdx,QWORD PTR [rbp+0x20]
 800407f:	48 89 51 10          	mov    QWORD PTR [rcx+0x10],rdx
 8004083:	48 8b 55 18          	mov    rdx,QWORD PTR [rbp+0x18]
 8004087:	48 89 51 08          	mov    QWORD PTR [rcx+0x8],rdx
 800408b:	48 89 c3             	mov    rbx,rax
 800408e:	48 8b 45 10          	mov    rax,QWORD PTR [rbp+0x10]
 8004092:	48 89 01             	mov    QWORD PTR [rcx],rax
 8004095:	48 8d bd 78 ff ff ff 	lea    rdi,[rbp-0x88]
 800409c:	e8 0b fb ff ff       	call   8003bac <io.fd_write>
 80040a1:	48 89 c1             	mov    rcx,rax
 80040a4:	48 89 d8             	mov    rax,rbx
 80040a7:	48 83 ec e0          	sub    rsp,0xffffffffffffffe0
 80040ab:	48 8b 51 28          	mov    rdx,QWORD PTR [rcx+0x28]
 80040af:	48 89 50 28          	mov    QWORD PTR [rax+0x28],rdx
 80040b3:	48 8b 51 20          	mov    rdx,QWORD PTR [rcx+0x20]
 80040b7:	48 89 50 20          	mov    QWORD PTR [rax+0x20],rdx
 80040bb:	48 8b 51 18          	mov    rdx,QWORD PTR [rcx+0x18]
 80040bf:	48 89 50 18          	mov    QWORD PTR [rax+0x18],rdx
 80040c3:	48 8b 51 10          	mov    rdx,QWORD PTR [rcx+0x10]
 80040c7:	48 89 50 10          	mov    QWORD PTR [rax+0x10],rdx
 80040cb:	48 8b 51 08          	mov    rdx,QWORD PTR [rcx+0x8]
 80040cf:	48 89 50 08          	mov    QWORD PTR [rax+0x8],rdx
 80040d3:	48 8b 09             	mov    rcx,QWORD PTR [rcx]
 80040d6:	48 89 08             	mov    QWORD PTR [rax],rcx
 80040d9:	5b                   	pop    rbx
 80040da:	c9                   	leave  
 80040db:	c3                   	ret    

00000000080040dc <io.close>:
 80040dc:	55                   	push   rbp
 80040dd:	48 89 e5             	mov    rbp,rsp
 80040e0:	48 81 ec 08 01 00 00 	sub    rsp,0x108
 80040e7:	53                   	push   rbx
 80040e8:	48 89 f8             	mov    rax,rdi
 80040eb:	48 89 b5 38 ff ff ff 	mov    QWORD PTR [rbp-0xc8],rsi
 80040f2:	48 89 95 40 ff ff ff 	mov    QWORD PTR [rbp-0xc0],rdx
 80040f9:	c7 85 48 ff ff ff c6 	mov    DWORD PTR [rbp-0xb8],0x97a0b8c6
 8004100:	b8 a0 97 
 8004103:	8b 8d 38 ff ff ff    	mov    ecx,DWORD PTR [rbp-0xc8]
 8004109:	81 f9 5b d9 d4 94    	cmp    ecx,0x94d4d95b
 800410f:	0f 84 60 01 00 00    	je     8004275 <io.close+0x199>
 8004115:	81 f9 9d ae b4 33    	cmp    ecx,0x33b4ae9d
 800411b:	74 52                	je     800416f <io.close+0x93>
 800411d:	48 8d 0d 54 d1 ff 77 	lea    rcx,[rip+0x77ffd154]        # 80001278 <strdata.1157>
 8004124:	48 89 4d e8          	mov    QWORD PTR [rbp-0x18],rcx
 8004128:	48 c7 45 f0 26 00 00 	mov    QWORD PTR [rbp-0x10],0x26
 800412f:	00 
 8004130:	48 c7 45 f8 26 00 00 	mov    QWORD PTR [rbp-0x8],0x26
 8004137:	00 
 8004138:	48 83 ec 20          	sub    rsp,0x20
 800413c:	48 89 e1             	mov    rcx,rsp
 800413f:	48 8b 55 f8          	mov    rdx,QWORD PTR [rbp-0x8]
 8004143:	48 89 51 10          	mov    QWORD PTR [rcx+0x10],rdx
 8004147:	48 8b 55 f0          	mov    rdx,QWORD PTR [rbp-0x10]
 800414b:	48 89 51 08          	mov    QWORD PTR [rcx+0x8],rdx
 800414f:	48 89 c3             	mov    rbx,rax
 8004152:	48 8b 45 e8          	mov    rax,QWORD PTR [rbp-0x18]
 8004156:	48 89 01             	mov    QWORD PTR [rcx],rax
 8004159:	bf 04 00 00 00       	mov    edi,0x4
 800415e:	e8 5c 17 01 00       	call   80158bf <rt.abort_fixed>
 8004163:	48 83 ec e0          	sub    rsp,0xffffffffffffffe0
 8004167:	48 89 d8             	mov    rax,rbx
 800416a:	e9 17 01 00 00       	jmp    8004286 <io.close+0x1aa>
 800416f:	48 89 c3             	mov    rbx,rax
 8004172:	48 8b b5 40 ff ff ff 	mov    rsi,QWORD PTR [rbp-0xc0]
 8004179:	48 8d bd 08 ff ff ff 	lea    rdi,[rbp-0xf8]
 8004180:	e8 6a 03 00 00       	call   80044ef <io.st_close>
 8004185:	48 89 c1             	mov    rcx,rax
 8004188:	48 89 d8             	mov    rax,rbx
 800418b:	8b 11                	mov    edx,DWORD PTR [rcx]
 800418d:	81 fa c6 b8 a0 97    	cmp    edx,0x97a0b8c6
 8004193:	0f 84 d4 00 00 00    	je     800426d <io.close+0x191>
 8004199:	81 fa 0f ac e8 49    	cmp    edx,0x49e8ac0f
 800419f:	74 52                	je     80041f3 <io.close+0x117>
 80041a1:	48 8d 0d a8 d0 ff 77 	lea    rcx,[rip+0x77ffd0a8]        # 80001250 <strdata.1153>
 80041a8:	48 89 4d d0          	mov    QWORD PTR [rbp-0x30],rcx
 80041ac:	48 c7 45 d8 26 00 00 	mov    QWORD PTR [rbp-0x28],0x26
 80041b3:	00 
 80041b4:	48 c7 45 e0 26 00 00 	mov    QWORD PTR [rbp-0x20],0x26
 80041bb:	00 
 80041bc:	48 83 ec 20          	sub    rsp,0x20
 80041c0:	48 89 e1             	mov    rcx,rsp
 80041c3:	48 8b 55 e0          	mov    rdx,QWORD PTR [rbp-0x20]
 80041c7:	48 89 51 10          	mov    QWORD PTR [rcx+0x10],rdx
 80041cb:	48 8b 55 d8          	mov    rdx,QWORD PTR [rbp-0x28]
 80041cf:	48 89 51 08          	mov    QWORD PTR [rcx+0x8],rdx
 80041d3:	48 89 c3             	mov    rbx,rax
 80041d6:	48 8b 45 d0          	mov    rax,QWORD PTR [rbp-0x30]
 80041da:	48 89 01             	mov    QWORD PTR [rcx],rax
 80041dd:	bf 04 00 00 00       	mov    edi,0x4
 80041e2:	e8 d8 16 01 00       	call   80158bf <rt.abort_fixed>
 80041e7:	48 89 d8             	mov    rax,rbx
 80041ea:	48 83 ec e0          	sub    rsp,0xffffffffffffffe0
 80041ee:	48 89 c3             	mov    rbx,rax
 80041f1:	eb 7d                	jmp    8004270 <io.close+0x194>
 80041f3:	4c 8b 41 08          	mov    r8,QWORD PTR [rcx+0x8]
 80041f7:	4c 89 85 78 ff ff ff 	mov    QWORD PTR [rbp-0x88],r8
 80041fe:	48 8b 79 10          	mov    rdi,QWORD PTR [rcx+0x10]
 8004202:	48 89 7d 80          	mov    QWORD PTR [rbp-0x80],rdi
 8004206:	48 8b 71 18          	mov    rsi,QWORD PTR [rcx+0x18]
 800420a:	48 89 75 88          	mov    QWORD PTR [rbp-0x78],rsi
 800420e:	48 8b 51 20          	mov    rdx,QWORD PTR [rcx+0x20]
 8004212:	48 89 55 90          	mov    QWORD PTR [rbp-0x70],rdx
 8004216:	48 8b 49 28          	mov    rcx,QWORD PTR [rcx+0x28]
 800421a:	48 89 4d 98          	mov    QWORD PTR [rbp-0x68],rcx
 800421e:	c7 45 a0 0f ac e8 49 	mov    DWORD PTR [rbp-0x60],0x49e8ac0f
 8004225:	4c 89 45 a8          	mov    QWORD PTR [rbp-0x58],r8
 8004229:	48 89 7d b0          	mov    QWORD PTR [rbp-0x50],rdi
 800422d:	48 89 75 b8          	mov    QWORD PTR [rbp-0x48],rsi
 8004231:	48 89 55 c0          	mov    QWORD PTR [rbp-0x40],rdx
 8004235:	48 89 4d c8          	mov    QWORD PTR [rbp-0x38],rcx
 8004239:	48 8b 4d c8          	mov    rcx,QWORD PTR [rbp-0x38]
 800423d:	48 89 48 28          	mov    QWORD PTR [rax+0x28],rcx
 8004241:	48 8b 4d c0          	mov    rcx,QWORD PTR [rbp-0x40]
 8004245:	48 89 48 20          	mov    QWORD PTR [rax+0x20],rcx
 8004249:	48 8b 4d b8          	mov    rcx,QWORD PTR [rbp-0x48]
 800424d:	48 89 48 18          	mov    QWORD PTR [rax+0x18],rcx
 8004251:	48 8b 4d b0          	mov    rcx,QWORD PTR [rbp-0x50]
 8004255:	48 89 48 10          	mov    QWORD PTR [rax+0x10],rcx
 8004259:	48 8b 4d a8          	mov    rcx,QWORD PTR [rbp-0x58]
 800425d:	48 89 48 08          	mov    QWORD PTR [rax+0x8],rcx
 8004261:	48 8b 4d a0          	mov    rcx,QWORD PTR [rbp-0x60]
 8004265:	48 89 08             	mov    QWORD PTR [rax],rcx
 8004268:	48 89 c3             	mov    rbx,rax
 800426b:	eb 5a                	jmp    80042c7 <io.close+0x1eb>
 800426d:	48 89 c3             	mov    rbx,rax
 8004270:	48 89 d8             	mov    rax,rbx
 8004273:	eb 11                	jmp    8004286 <io.close+0x1aa>
 8004275:	48 89 c3             	mov    rbx,rax
 8004278:	8b bd 40 ff ff ff    	mov    edi,DWORD PTR [rbp-0xc0]
 800427e:	e8 85 fa ff ff       	call   8003d08 <io.fd_close>
 8004283:	48 89 d8             	mov    rax,rbx
 8004286:	48 8b 8d 70 ff ff ff 	mov    rcx,QWORD PTR [rbp-0x90]
 800428d:	48 89 48 28          	mov    QWORD PTR [rax+0x28],rcx
 8004291:	48 8b 8d 68 ff ff ff 	mov    rcx,QWORD PTR [rbp-0x98]
 8004298:	48 89 48 20          	mov    QWORD PTR [rax+0x20],rcx
 800429c:	48 8b 8d 60 ff ff ff 	mov    rcx,QWORD PTR [rbp-0xa0]
 80042a3:	48 89 48 18          	mov    QWORD PTR [rax+0x18],rcx
 80042a7:	48 8b 8d 58 ff ff ff 	mov    rcx,QWORD PTR [rbp-0xa8]
 80042ae:	48 89 48 10          	mov    QWORD PTR [rax+0x10],rcx
 80042b2:	48 8b 8d 50 ff ff ff 	mov    rcx,QWORD PTR [rbp-0xb0]
 80042b9:	48 89 48 08          	mov    QWORD PTR [rax+0x8],rcx
 80042bd:	48 8b 8d 48 ff ff ff 	mov    rcx,QWORD PTR [rbp-0xb8]
 80042c4:	48 89 08             	mov    QWORD PTR [rax],rcx
 80042c7:	5b                   	pop    rbx
 80042c8:	c9                   	leave  
 80042c9:	c3                   	ret    

00000000080042ca <io.st_read>:
 80042ca:	55                   	push   rbp
 80042cb:	48 89 e5             	mov    rbp,rsp
 80042ce:	48 81 ec 88 00 00 00 	sub    rsp,0x88
 80042d5:	53                   	push   rbx
 80042d6:	48 89 f8             	mov    rax,rdi
 80042d9:	48 8b 0e             	mov    rcx,QWORD PTR [rsi]
 80042dc:	48 8b 09             	mov    rcx,QWORD PTR [rcx]
 80042df:	83 f9 00             	cmp    ecx,0x0
